(dp1
S'files'
p2
(dp3
S'env_lib_python2_7_site-packages_werkzeug_routing'
p4
(dp5
S'index'
p6
(dp7
S'html_filename'
p8
S'env_lib_python2_7_site-packages_werkzeug_routing.html'
p9
sS'name'
p10
S'env/lib/python2.7/site-packages/werkzeug/routing'
p11
sS'nums'
p12
ccopy_reg
_reconstructor
p13
(ccoverage.results
Numbers
p14
c__builtin__
object
p15
NtRp16
(dp17
S'n_files'
p18
I1
sS'n_branches'
p19
I0
sS'n_statements'
p20
I595
sS'n_excluded'
p21
I0
sS'n_partial_branches'
p22
I0
sS'n_missing'
p23
I231
sS'n_missing_branches'
p24
I0
sbssS'hash'
p25
S'\xf9>H\xa7\xfd\x91\xc2\xe4\xe9\x078\xbe\x91\xe1C\xfb'
p26
ssS'env_lib_python2_7_site-packages_werkzeug_exceptions'
p27
(dp28
g6
(dp29
g8
S'env_lib_python2_7_site-packages_werkzeug_exceptions.html'
p30
sg10
S'env/lib/python2.7/site-packages/werkzeug/exceptions'
p31
sg12
g13
(g14
g15
NtRp32
(dp33
g18
I1
sg19
I0
sg20
I172
sg21
I0
sg22
I0
sg23
I27
sg24
I0
sbssg25
S'*\x1e=Cbg\xb6\x940a\xb0KA()#'
p34
ssS'env_lib_python2_7_site-packages_sqlalchemy_processors'
p35
(dp36
g6
(dp37
g8
S'env_lib_python2_7_site-packages_sqlalchemy_processors.html'
p38
sg10
S'env/lib/python2.7/site-packages/sqlalchemy/processors'
p39
sg12
g13
(g14
g15
NtRp40
(dp41
g18
I1
sg19
I0
sg20
I83
sg21
I0
sg22
I0
sg23
I68
sg24
I0
sbssg25
S'\x0b\xf80)\xae\xe9E\xe0\x8b\xd9M\x9d?O\x14\xf4'
p42
ssS'env_lib_python2_7_site-packages_sqlalchemy_orm_properties'
p43
(dp44
g6
(dp45
g8
S'env_lib_python2_7_site-packages_sqlalchemy_orm_properties.html'
p46
sg10
S'env/lib/python2.7/site-packages/sqlalchemy/orm/properties'
p47
sg12
g13
(g14
g15
NtRp48
(dp49
g18
I1
sg19
I0
sg20
I81
sg21
I0
sg22
I0
sg23
I30
sg24
I0
sbssg25
S'\xf5T\xcdn\xb6\xc2\xcb\xdaH\x03~\x10\tW\xf60'
p50
ssS'env_lib_python2_7_site-packages_jinja2_environment'
p51
(dp52
g6
(dp53
g8
S'env_lib_python2_7_site-packages_jinja2_environment.html'
p54
sg10
S'env/lib/python2.7/site-packages/jinja2/environment'
p55
sg12
g13
(g14
g15
NtRp56
(dp57
g18
I1
sg19
I0
sg20
I488
sg21
I0
sg22
I0
sg23
I280
sg24
I0
sbssg25
S'\xe4\x18C=bc\xd7=\x91\xd4O\xde\x9a\xd6\xbf\xa0'
p58
ssS'env_lib_python2_7_site-packages_sqlalchemy_sql_naming'
p59
(dp60
g6
(dp61
g8
S'env_lib_python2_7_site-packages_sqlalchemy_sql_naming.html'
p62
sg10
S'env/lib/python2.7/site-packages/sqlalchemy/sql/naming'
p63
sg12
g13
(g14
g15
NtRp64
(dp65
g18
I1
sg19
I0
sg20
I84
sg21
I0
sg22
I0
sg23
I49
sg24
I0
sbssg25
S'XD\xe5\xd9m\\\xffk\xd78|/E5\xbf\x11'
p66
ssS'env_lib_python2_7_site-packages_sqlalchemy_orm_session'
p67
(dp68
g6
(dp69
g8
S'env_lib_python2_7_site-packages_sqlalchemy_orm_session.html'
p70
sg10
S'env/lib/python2.7/site-packages/sqlalchemy/orm/session'
p71
sg12
g13
(g14
g15
NtRp72
(dp73
g18
I1
sg19
I0
sg20
I782
sg21
I0
sg22
I0
sg23
I376
sg24
I0
sbssg25
S'\x0eu\xac(\x854\xf2\x89\x8c\xd9Q\xeb\xaf\x99\xbeA'
p74
ssS'env_lib_python2_7_site-packages_markupsafe___init__'
p75
(dp76
g6
(dp77
g8
S'env_lib_python2_7_site-packages_markupsafe___init__.html'
p78
sg10
S'env/lib/python2.7/site-packages/markupsafe/__init__'
p79
sg12
g13
(g14
g15
NtRp80
(dp81
g18
I1
sg19
I0
sg20
I155
sg21
I0
sg22
I0
sg23
I85
sg24
I0
sbssg25
S'\xea:\x15\xe9\xe7H\x96\xef\xf0\x1aI\xc6\x93k\xf7\xa5'
p82
ssS'env_lib_python2_7_site-packages_sqlalchemy_schema'
p83
(dp84
g6
(dp85
g8
S'env_lib_python2_7_site-packages_sqlalchemy_schema.html'
p86
sg10
S'env/lib/python2.7/site-packages/sqlalchemy/schema'
p87
sg12
g13
(g14
g15
NtRp88
(dp89
g18
I1
sg19
I0
sg20
I5
sg21
I0
sg22
I0
sg23
I0
sg24
I0
sbssg25
S'AY\x95\xf3\xd3\x9e\x87\xc6\x9c\x97\xa0\xe4Ry\xa2<'
p90
ssS'env_lib_python2_7_site-packages_flask_json'
p91
(dp92
g6
(dp93
g8
S'env_lib_python2_7_site-packages_flask_json.html'
p94
sg10
S'env/lib/python2.7/site-packages/flask/json'
p95
sg12
g13
(g14
g15
NtRp96
(dp97
g18
I1
sg19
I0
sg20
I83
sg21
I0
sg22
I0
sg23
I39
sg24
I0
sbssg25
S'\x03\xdd{q\xb1Zz\xb5\xe9YE-u\xc6\x9d\xbb'
p98
ssS'env_lib_python2_7_site-packages_flask_app'
p99
(dp100
g6
(dp101
g8
S'env_lib_python2_7_site-packages_flask_app.html'
p102
sg10
S'env/lib/python2.7/site-packages/flask/app'
p103
sg12
g13
(g14
g15
NtRp104
(dp105
g18
I1
sg19
I0
sg20
I528
sg21
I0
sg22
I0
sg23
I224
sg24
I0
sbssg25
S'\xb1\xad7\xa9N\x80s\x8d!?\xff,\x83\r\xb8A'
p106
ssS'env_lib_python2_7_site-packages_jinja2_runtime'
p107
(dp108
g6
(dp109
g8
S'env_lib_python2_7_site-packages_jinja2_runtime.html'
p110
sg10
S'env/lib/python2.7/site-packages/jinja2/runtime'
p111
sg12
g13
(g14
g15
NtRp112
(dp113
g18
I1
sg19
I0
sg20
I291
sg21
I0
sg22
I0
sg23
I159
sg24
I0
sbssg25
S',\x18\xb0\xeb\xc5\x1a\x98\x1ab7\xb2\x8a\xe3\x9f%\xbb'
p114
ssS'env_lib_python2_7_site-packages_flask_debughelpers'
p115
(dp116
g6
(dp117
g8
S'env_lib_python2_7_site-packages_flask_debughelpers.html'
p118
sg10
S'env/lib/python2.7/site-packages/flask/debughelpers'
p119
sg12
g13
(g14
g15
NtRp120
(dp121
g18
I1
sg19
I0
sg20
I35
sg21
I0
sg22
I0
sg23
I25
sg24
I0
sbssg25
S'\xb1\x83\xab\xaa\xfbi\x87\xe1\x0515\x06\xb8\xe5\xcd\xa5'
p122
ssS'env_lib_python2_7_site-packages_wtforms_compat'
p123
(dp124
g6
(dp125
g8
S'env_lib_python2_7_site-packages_wtforms_compat.html'
p126
sg10
S'env/lib/python2.7/site-packages/wtforms/compat'
p127
sg12
g13
(g14
g15
NtRp128
(dp129
g18
I1
sg19
I0
sg20
I14
sg21
I0
sg22
I0
sg23
I5
sg24
I0
sbssg25
S']\xa2\x85\xc0\r\xc0\xb6\x8f\x92g\xeb\xff\xcc\\\xedm'
p130
ssS'env_lib_python2_7_site-packages_sqlalchemy_sql_annotation'
p131
(dp132
g6
(dp133
g8
S'env_lib_python2_7_site-packages_sqlalchemy_sql_annotation.html'
p134
sg10
S'env/lib/python2.7/site-packages/sqlalchemy/sql/annotation'
p135
sg12
g13
(g14
g15
NtRp136
(dp137
g18
I1
sg19
I0
sg20
I97
sg21
I0
sg22
I0
sg23
I25
sg24
I0
sbssg25
S'i\xe1\xd1+\xe1\xac(-\x85\xa3\x1d\x0c7\x90\x9c\xeb'
p138
ssS'env_lib_python2_7_site-packages_sqlalchemy_engine___init__'
p139
(dp140
g6
(dp141
g8
S'env_lib_python2_7_site-packages_sqlalchemy_engine___init__.html'
p142
sg10
S'env/lib/python2.7/site-packages/sqlalchemy/engine/__init__'
p143
sg12
g13
(g14
g15
NtRp144
(dp145
g18
I1
sg19
I0
sg20
I19
sg21
I0
sg22
I0
sg23
I5
sg24
I0
sbssg25
S'1\xd75\xe3!\x1cF\xf5\x86\x12\xdc:\xd1\xe2\x8d\xbc'
p146
ssS'env_lib_python2_7_site-packages_jinja2_bccache'
p147
(dp148
g6
(dp149
g8
S'env_lib_python2_7_site-packages_jinja2_bccache.html'
p150
sg10
S'env/lib/python2.7/site-packages/jinja2/bccache'
p151
sg12
g13
(g14
g15
NtRp152
(dp153
g18
I1
sg19
I0
sg20
I147
sg21
I0
sg22
I0
sg23
I104
sg24
I0
sbssg25
S'r\xee\xabK\x8f\x01\xb0\xfa\xa2rl\xe3)n]\xc4'
p154
ssS'env_lib_python2_7_site-packages_sqlalchemy_orm_sync'
p155
(dp156
g6
(dp157
g8
S'env_lib_python2_7_site-packages_sqlalchemy_orm_sync.html'
p158
sg10
S'env/lib/python2.7/site-packages/sqlalchemy/orm/sync'
p159
sg12
g13
(g14
g15
NtRp160
(dp161
g18
I1
sg19
I0
sg20
I56
sg21
I0
sg22
I0
sg23
I42
sg24
I0
sbssg25
S'\x07\xaf\x81\x90@L\xc7|Tf\x1d}\xdao\x85\xd7'
p162
ssS'env_lib_python2_7_site-packages_sqlalchemy_engine_base'
p163
(dp164
g6
(dp165
g8
S'env_lib_python2_7_site-packages_sqlalchemy_engine_base.html'
p166
sg10
S'env/lib/python2.7/site-packages/sqlalchemy/engine/base'
p167
sg12
g13
(g14
g15
NtRp168
(dp169
g18
I1
sg19
I0
sg20
I658
sg21
I0
sg22
I0
sg23
I298
sg24
I0
sbssg25
S'8\x9f\x9bOr\xdc\xc7E\x97\xa7R\x07dv\x0c$'
p170
ssS'forms'
p171
(dp172
g6
(dp173
g8
S'forms.html'
p174
sg10
g171
sg12
g13
(g14
g15
NtRp175
(dp176
g18
I1
sg19
I0
sg20
I17
sg21
I0
sg22
I0
sg23
I0
sg24
I0
sbssg25
S'\x9e]\x01i\xc2\xd5J[\x90b/<\x95:f\xe1'
p177
ssS'env_lib_python2_7_site-packages_jinja2_optimizer'
p178
(dp179
g6
(dp180
g8
S'env_lib_python2_7_site-packages_jinja2_optimizer.html'
p181
sg10
S'env/lib/python2.7/site-packages/jinja2/optimizer'
p182
sg12
g13
(g14
g15
NtRp183
(dp184
g18
I1
sg19
I0
sg20
I31
sg21
I0
sg22
I0
sg23
I8
sg24
I0
sbssg25
S"v\x90\x17@`\xb3wT\x0e\xa4X'\xf4g\x94."
p185
ssS'env_lib_python2_7_site-packages_sqlalchemy_sql_sqltypes'
p186
(dp187
g6
(dp188
g8
S'env_lib_python2_7_site-packages_sqlalchemy_sql_sqltypes.html'
p189
sg10
S'env/lib/python2.7/site-packages/sqlalchemy/sql/sqltypes'
p190
sg12
g13
(g14
g15
NtRp191
(dp192
g18
I1
sg19
I0
sg20
I526
sg21
I0
sg22
I0
sg23
I284
sg24
I0
sbssg25
S'\x97>\xc4\xc3\xee\xa8<vP\x9d\x88\xcf\xfe\xe3//'
p193
ssS'env_lib_python2_7_site-packages_wtforms_fields___init__'
p194
(dp195
g6
(dp196
g8
S'env_lib_python2_7_site-packages_wtforms_fields___init__.html'
p197
sg10
S'env/lib/python2.7/site-packages/wtforms/fields/__init__'
p198
sg12
g13
(g14
g15
NtRp199
(dp200
g18
I1
sg19
I0
sg20
I3
sg21
I0
sg22
I0
sg23
I0
sg24
I0
sbssg25
S'\x12dE2A}Z\x0f\x89cm\xa4\xb6M\x15:'
p201
ssS'env_lib_python2_7_site-packages_sqlalchemy_event_api'
p202
(dp203
g6
(dp204
g8
S'env_lib_python2_7_site-packages_sqlalchemy_event_api.html'
p205
sg10
S'env/lib/python2.7/site-packages/sqlalchemy/event/api'
p206
sg12
g13
(g14
g15
NtRp207
(dp208
g18
I1
sg19
I0
sg20
I24
sg21
I0
sg22
I0
sg23
I3
sg24
I0
sbssg25
S'H\xf4\xe5\xb5$\xcaY0\x8cA\xa9\xbf4\x84\xfa\xe0'
p209
ssS'env_lib_python2_7_site-packages_sqlalchemy_orm_attributes'
p210
(dp211
g6
(dp212
g8
S'env_lib_python2_7_site-packages_sqlalchemy_orm_attributes.html'
p213
sg10
S'env/lib/python2.7/site-packages/sqlalchemy/orm/attributes'
p214
sg12
g13
(g14
g15
NtRp215
(dp216
g18
I1
sg19
I0
sg20
I622
sg21
I0
sg22
I0
sg23
I365
sg24
I0
sbssg25
S'\x95\xf7|\xa9z\x8d\xcc4o\xc7\xee\xcfxu\x90\xd6'
p217
ssS'env_lib_python2_7_site-packages_werkzeug_test'
p218
(dp219
g6
(dp220
g8
S'env_lib_python2_7_site-packages_werkzeug_test.html'
p221
sg10
S'env/lib/python2.7/site-packages/werkzeug/test'
p222
sg12
g13
(g14
g15
NtRp223
(dp224
g18
I1
sg19
I0
sg20
I465
sg21
I0
sg22
I0
sg23
I177
sg24
I0
sbssg25
S'qK\xe3@\xe0\xcf\xc4\x04\xdc\xe4u[b\x9co\xa2'
p225
ssS'env_lib_python2_7_site-packages_werkzeug_urls'
p226
(dp227
g6
(dp228
g8
S'env_lib_python2_7_site-packages_werkzeug_urls.html'
p229
sg10
S'env/lib/python2.7/site-packages/werkzeug/urls'
p230
sg12
g13
(g14
g15
NtRp231
(dp232
g18
I1
sg19
I0
sg20
I412
sg21
I0
sg22
I0
sg23
I154
sg24
I0
sbssg25
S'w3\x18\x9eb\xae\xd0\xcb*\x85\xb3U^da\x19'
p233
ssS'env_lib_python2_7_site-packages_sqlalchemy_orm_loading'
p234
(dp235
g6
(dp236
g8
S'env_lib_python2_7_site-packages_sqlalchemy_orm_loading.html'
p237
sg10
S'env/lib/python2.7/site-packages/sqlalchemy/orm/loading'
p238
sg12
g13
(g14
g15
NtRp239
(dp240
g18
I1
sg19
I0
sg20
I312
sg21
I0
sg22
I0
sg23
I149
sg24
I0
sbssg25
S'{\x08\x1b\x10\xf3\xe9C\xe1;\xf35\x058\x06?h'
p241
ssS'env_lib_python2_7_site-packages_sqlalchemy_event___init__'
p242
(dp243
g6
(dp244
g8
S'env_lib_python2_7_site-packages_sqlalchemy_event___init__.html'
p245
sg10
S'env/lib/python2.7/site-packages/sqlalchemy/event/__init__'
p246
sg12
g13
(g14
g15
NtRp247
(dp248
g18
I1
sg19
I0
sg20
I4
sg21
I0
sg22
I0
sg23
I0
sg24
I0
sbssg25
S'td]\xc4W\xe5\xd0\xd4\xdbx\xef\x16\x89W\xe2B'
p249
ssS'env_lib_python2_7_site-packages_jinja2_utils'
p250
(dp251
g6
(dp252
g8
S'env_lib_python2_7_site-packages_jinja2_utils.html'
p253
sg10
S'env/lib/python2.7/site-packages/jinja2/utils'
p254
sg12
g13
(g14
g15
NtRp255
(dp256
g18
I1
sg19
I0
sg20
I263
sg21
I0
sg22
I0
sg23
I154
sg24
I0
sbssg25
S"\xcd$\x12\x91s\xe7\xbf\xb8'_w\x87;\xedQ2"
p257
ssS'env_lib_python2_7_site-packages_sqlalchemy_orm_events'
p258
(dp259
g6
(dp260
g8
S'env_lib_python2_7_site-packages_sqlalchemy_orm_events.html'
p261
sg10
S'env/lib/python2.7/site-packages/sqlalchemy/orm/events'
p262
sg12
g13
(g14
g15
NtRp263
(dp264
g18
I1
sg19
I0
sg20
I257
sg21
I0
sg22
I0
sg23
I100
sg24
I0
sbssg25
S'>\xfb\x85\x8c\x08\x07{\xbb\xea\xc3A\x95\x7f4~\xe6'
p265
ssS'env_lib_python2_7_site-packages_flask_wtf__compat'
p266
(dp267
g6
(dp268
g8
S'env_lib_python2_7_site-packages_flask_wtf__compat.html'
p269
sg10
S'env/lib/python2.7/site-packages/flask_wtf/_compat'
p270
sg12
g13
(g14
g15
NtRp271
(dp272
g18
I1
sg19
I0
sg20
I10
sg21
I0
sg22
I0
sg23
I5
sg24
I0
sbssg25
S'I\xa3\xb5\x0b\x98\xe4?~/^\xdeK\x8eH\xd1S'
p273
ssS'env_lib_python2_7_site-packages_sqlalchemy_util__collections'
p274
(dp275
g6
(dp276
g8
S'env_lib_python2_7_site-packages_sqlalchemy_util__collections.html'
p277
sg10
S'env/lib/python2.7/site-packages/sqlalchemy/util/_collections'
p278
sg12
g13
(g14
g15
NtRp279
(dp280
g18
I1
sg19
I0
sg20
I550
sg21
I0
sg22
I0
sg23
I257
sg24
I0
sbssg25
S".T\xa4\x86$\xe9k(Dw\x8c\x05\x81\xe1\xcd'"
p281
ssS'env_lib_python2_7_site-packages_sqlalchemy_orm_dynamic'
p282
(dp283
g6
(dp284
g8
S'env_lib_python2_7_site-packages_sqlalchemy_orm_dynamic.html'
p285
sg10
S'env/lib/python2.7/site-packages/sqlalchemy/orm/dynamic'
p286
sg12
g13
(g14
g15
NtRp287
(dp288
g18
I1
sg19
I0
sg20
I198
sg21
I0
sg22
I0
sg23
I144
sg24
I0
sbssg25
S'\xbeW {\xf6?6\xf6\xbd\x14(\x1a\x88>\xee\xf1'
p289
ssS'env_lib_python2_7_site-packages_sqlalchemy_sql_elements'
p290
(dp291
g6
(dp292
g8
S'env_lib_python2_7_site-packages_sqlalchemy_sql_elements.html'
p293
sg10
S'env/lib/python2.7/site-packages/sqlalchemy/sql/elements'
p294
sg12
g13
(g14
g15
NtRp295
(dp296
g18
I1
sg19
I0
sg20
I976
sg21
I0
sg22
I0
sg23
I427
sg24
I0
sbssg25
S'0\xb8\x89V^R#<"u2C\x0e\xb6\xa9\xbf'
p297
ssS'env_lib_python2_7_site-packages_flask___init__'
p298
(dp299
g6
(dp300
g8
S'env_lib_python2_7_site-packages_flask___init__.html'
p301
sg10
S'env/lib/python2.7/site-packages/flask/__init__'
p302
sg12
g13
(g14
g15
NtRp303
(dp304
g18
I1
sg19
I0
sg20
I18
sg21
I0
sg22
I0
sg23
I0
sg24
I0
sbssg25
S'\xbap\xbb\x0bT{\x1b\xee\xb3R\xfde\x14\xac>O'
p305
ssS'env_lib_python2_7_site-packages_sqlalchemy_engine_result'
p306
(dp307
g6
(dp308
g8
S'env_lib_python2_7_site-packages_sqlalchemy_engine_result.html'
p309
sg10
S'env/lib/python2.7/site-packages/sqlalchemy/engine/result'
p310
sg12
g13
(g14
g15
NtRp311
(dp312
g18
I1
sg19
I0
sg20
I446
sg21
I0
sg22
I0
sg23
I279
sg24
I0
sbssg25
S'\x80\x03\xbc\xb0\xc4"O\xf7Q\x07\n\xf4x_\xd8\x05'
p313
ssS'env_lib_python2_7_site-packages_sqlalchemy_engine_interfaces'
p314
(dp315
g6
(dp316
g8
S'env_lib_python2_7_site-packages_sqlalchemy_engine_interfaces.html'
p317
sg10
S'env/lib/python2.7/site-packages/sqlalchemy/engine/interfaces'
p318
sg12
g13
(g14
g15
NtRp319
(dp320
g18
I1
sg19
I0
sg20
I131
sg21
I0
sg22
I0
sg23
I54
sg24
I0
sbssg25
S'\xe0\xd0\xa2\xad3\x80\x14X\xc8\xea]\x9ai\x0b\xfds'
p321
ssS'env_lib_python2_7_site-packages_flask_exthook'
p322
(dp323
g6
(dp324
g8
S'env_lib_python2_7_site-packages_flask_exthook.html'
p325
sg10
S'env/lib/python2.7/site-packages/flask/exthook'
p326
sg12
g13
(g14
g15
NtRp327
(dp328
g18
I1
sg19
I0
sg20
I54
sg21
I0
sg22
I0
sg23
I24
sg24
I0
sbssg25
S'\x81\xa8\x93h\x123\rtT\xd2\xe8\x8ejs\x0f\x12'
p329
ssS'env_lib_python2_7_site-packages_sqlalchemy_orm_strategy_options'
p330
(dp331
g6
(dp332
g8
S'env_lib_python2_7_site-packages_sqlalchemy_orm_strategy_options.html'
p333
sg10
S'env/lib/python2.7/site-packages/sqlalchemy/orm/strategy_options'
p334
sg12
g13
(g14
g15
NtRp335
(dp336
g18
I1
sg19
I0
sg20
I328
sg21
I0
sg22
I0
sg23
I243
sg24
I0
sbssg25
S'\x1c\xfc\xfa\x16O\xf9\xa8\x1a!\xc6\xcc\xfc\xcc\xc9\x8b\xbd'
p337
ssS'env_lib_python2_7_site-packages_sqlalchemy_dialects___init__'
p338
(dp339
g6
(dp340
g8
S'env_lib_python2_7_site-packages_sqlalchemy_dialects___init__.html'
p341
sg10
S'env/lib/python2.7/site-packages/sqlalchemy/dialects/__init__'
p342
sg12
g13
(g14
g15
NtRp343
(dp344
g18
I1
sg19
I0
sg20
I17
sg21
I0
sg22
I0
sg23
I4
sg24
I0
sbssg25
S'S\xc1{\x0e\x99\xe77\x97@\x91d\x1c\tT5\xa5'
p345
ssS'env_lib_python2_7_site-packages_sqlalchemy_util___init__'
p346
(dp347
g6
(dp348
g8
S'env_lib_python2_7_site-packages_sqlalchemy_util___init__.html'
p349
sg10
S'env/lib/python2.7/site-packages/sqlalchemy/util/__init__'
p350
sg12
g13
(g14
g15
NtRp351
(dp352
g18
I1
sg19
I0
sg20
I8
sg21
I0
sg22
I0
sg23
I0
sg24
I0
sbssg25
S'\x80\xfa[c\x83e\xc4PG\x9a-\x03\xf5&\x82\x07'
p353
ssS'env_lib_python2_7_site-packages_sqlalchemy_orm___init__'
p354
(dp355
g6
(dp356
g8
S'env_lib_python2_7_site-packages_sqlalchemy_orm___init__.html'
p357
sg10
S'env/lib/python2.7/site-packages/sqlalchemy/orm/__init__'
p358
sg12
g13
(g14
g15
NtRp359
(dp360
g18
I1
sg19
I0
sg20
I78
sg21
I0
sg22
I0
sg23
I21
sg24
I0
sbssg25
S'i\xdbY$#\x92E!\x02\xa9a\x98\xa0\x812\xf0'
p361
ssS'env_lib_python2_7_site-packages_markupsafe__compat'
p362
(dp363
g6
(dp364
g8
S'env_lib_python2_7_site-packages_markupsafe__compat.html'
p365
sg10
S'env/lib/python2.7/site-packages/markupsafe/_compat'
p366
sg12
g13
(g14
g15
NtRp367
(dp368
g18
I1
sg19
I0
sg20
I14
sg21
I0
sg22
I0
sg23
I5
sg24
I0
sbssg25
S'\x99\x16\xdbp\x85/\x12e\xfa.\xcb\xca\xb3T\x01\xdd'
p369
ssS'env_lib_python2_7_site-packages_werkzeug_wrappers'
p370
(dp371
g6
(dp372
g8
S'env_lib_python2_7_site-packages_werkzeug_wrappers.html'
p373
sg10
S'env/lib/python2.7/site-packages/werkzeug/wrappers'
p374
sg12
g13
(g14
g15
NtRp375
(dp376
g18
I1
sg19
I0
sg20
I568
sg21
I0
sg22
I0
sg23
I241
sg24
I0
sbssg25
S'\x7fr\x19Q\xad\xad\xd4\x13\x8b\x1bb\t\xff\xba1['
p377
ssS'env_lib_python2_7_site-packages_sqlalchemy_event_registry'
p378
(dp379
g6
(dp380
g8
S'env_lib_python2_7_site-packages_sqlalchemy_event_registry.html'
p381
sg10
S'env/lib/python2.7/site-packages/sqlalchemy/event/registry'
p382
sg12
g13
(g14
g15
NtRp383
(dp384
g18
I1
sg19
I0
sg20
I130
sg21
I0
sg22
I0
sg23
I66
sg24
I0
sbssg25
S'uv8\x05\xa6@!\x12\x94\x8eSK\xbdu2\x9e'
p385
ssS'env_lib_python2_7_site-packages_werkzeug_utils'
p386
(dp387
g6
(dp388
g8
S'env_lib_python2_7_site-packages_werkzeug_utils.html'
p389
sg10
S'env/lib/python2.7/site-packages/werkzeug/utils'
p390
sg12
g13
(g14
g15
NtRp391
(dp392
g18
I1
sg19
I0
sg20
I242
sg21
I0
sg22
I0
sg23
I151
sg24
I0
sbssg25
S'\xf6WS\xd8\xdcN\x89\xb4\xd0k\xf5\xff\x1aQ\xa8{'
p393
ssS'env_lib_python2_7_site-packages_sqlalchemy_orm_unitofwork'
p394
(dp395
g6
(dp396
g8
S'env_lib_python2_7_site-packages_sqlalchemy_orm_unitofwork.html'
p397
sg10
S'env/lib/python2.7/site-packages/sqlalchemy/orm/unitofwork'
p398
sg12
g13
(g14
g15
NtRp399
(dp400
g18
I1
sg19
I0
sg20
I325
sg21
I0
sg22
I0
sg23
I155
sg24
I0
sbssg25
S'Bi\xe2\x19\xeb\t\xcc\xe1\x97I\x0b\x17\x9dX9\xc5'
p401
ssS'env_lib_python2_7_site-packages_sqlalchemy_orm_instrumentation'
p402
(dp403
g6
(dp404
g8
S'env_lib_python2_7_site-packages_sqlalchemy_orm_instrumentation.html'
p405
sg10
S'env/lib/python2.7/site-packages/sqlalchemy/orm/instrumentation'
p406
sg12
g13
(g14
g15
NtRp407
(dp408
g18
I1
sg19
I0
sg20
I239
sg21
I0
sg22
I0
sg23
I98
sg24
I0
sbssg25
S'\x11O\xd1\x80\xe8\xc8\x04\xb5\xe4I\x07\x891\xdcc\xd0'
p409
ssS'env_lib_python2_7_site-packages_sqlalchemy_engine_util'
p410
(dp411
g6
(dp412
g8
S'env_lib_python2_7_site-packages_sqlalchemy_engine_util.html'
p413
sg10
S'env/lib/python2.7/site-packages/sqlalchemy/engine/util'
p414
sg12
g13
(g14
g15
NtRp415
(dp416
g18
I1
sg19
I0
sg20
I33
sg21
I0
sg22
I0
sg23
I28
sg24
I0
sbssg25
S'\x16=\xe0\xb9}@H+\x97\x0f_\xd6\x00\x1c\xaey'
p417
ssS'env_lib_python2_7_site-packages_sqlalchemy_engine_reflection'
p418
(dp419
g6
(dp420
g8
S'env_lib_python2_7_site-packages_sqlalchemy_engine_reflection.html'
p421
sg10
S'env/lib/python2.7/site-packages/sqlalchemy/engine/reflection'
p422
sg12
g13
(g14
g15
NtRp423
(dp424
g18
I1
sg19
I0
sg20
I165
sg21
I0
sg22
I0
sg23
I137
sg24
I0
sbssg25
S'F\xde\xf8;7\xadQ0c\xc2\x83\x83\xc9\xe6\xc7\xda'
p425
ssS'env_lib_python2_7_site-packages_sqlalchemy_orm_state'
p426
(dp427
g6
(dp428
g8
S'env_lib_python2_7_site-packages_sqlalchemy_orm_state.html'
p429
sg10
S'env/lib/python2.7/site-packages/sqlalchemy/orm/state'
p430
sg12
g13
(g14
g15
NtRp431
(dp432
g18
I1
sg19
I0
sg20
I255
sg21
I0
sg22
I0
sg23
I115
sg24
I0
sbssg25
S'\x07\xeal\xb6\xb7\xcc\xfd\xec\xbf\xa8\x1e\xdbo\xdd\xeb\xb6'
p433
ssS'env_lib_python2_7_site-packages_sqlalchemy_util_queue'
p434
(dp435
g6
(dp436
g8
S'env_lib_python2_7_site-packages_sqlalchemy_util_queue.html'
p437
sg10
S'env/lib/python2.7/site-packages/sqlalchemy/util/queue'
p438
sg12
g13
(g14
g15
NtRp439
(dp440
g18
I1
sg19
I0
sg20
I88
sg21
I0
sg22
I0
sg23
I64
sg24
I0
sbssg25
S'z\xeb\xc4\xf8\xc0~\xf4\xfc\x93\xbb\xe7\x13M\xf1x}'
p441
ssS'env_lib_python2_7_site-packages_flask_sessions'
p442
(dp443
g6
(dp444
g8
S'env_lib_python2_7_site-packages_flask_sessions.html'
p445
sg10
S'env/lib/python2.7/site-packages/flask/sessions'
p446
sg12
g13
(g14
g15
NtRp447
(dp448
g18
I1
sg19
I0
sg20
I143
sg21
I0
sg22
I0
sg23
I29
sg24
I0
sbssg25
S'+\xab\xe2\xfd\xe1,\x9b\x81N\x99\xcb/c\xf9Sk'
p449
ssS'env_lib_python2_7_site-packages_wtforms_fields_simple'
p450
(dp451
g6
(dp452
g8
S'env_lib_python2_7_site-packages_wtforms_fields_simple.html'
p453
sg10
S'env/lib/python2.7/site-packages/wtforms/fields/simple'
p454
sg12
g13
(g14
g15
NtRp455
(dp456
g18
I1
sg19
I0
sg20
I14
sg21
I0
sg22
I0
sg23
I0
sg24
I0
sbssg25
S'\x8c\x14\xe9\\\xf9\xa9$\x0f\x08\xba\xc7\xf4Y\xff;e'
p457
ssS'env_lib_python2_7_site-packages_sqlalchemy_orm_evaluator'
p458
(dp459
g6
(dp460
g8
S'env_lib_python2_7_site-packages_sqlalchemy_orm_evaluator.html'
p461
sg10
S'env/lib/python2.7/site-packages/sqlalchemy/orm/evaluator'
p462
sg12
g13
(g14
g15
NtRp463
(dp464
g18
I1
sg19
I0
sg20
I87
sg21
I0
sg22
I0
sg23
I49
sg24
I0
sbssg25
S"\xef\xfc\x80h\xbb'\xa1\x7f\x93\t\x86\xd8\x02\x0f\xd4\xdc"
p465
ssS'env_lib_python2_7_site-packages_flask_blueprints'
p466
(dp467
g6
(dp468
g8
S'env_lib_python2_7_site-packages_flask_blueprints.html'
p469
sg10
S'env/lib/python2.7/site-packages/flask/blueprints'
p470
sg12
g13
(g14
g15
NtRp471
(dp472
g18
I1
sg19
I0
sg20
I156
sg21
I0
sg22
I0
sg23
I118
sg24
I0
sbssg25
S'1D\xa1\x05E/\x93\xfd|\xb3q\xa6\x8a\xa6\xcc9'
p473
ssS'env_lib_python2_7_site-packages_sqlalchemy_dialects_sqlite_pysqlite'
p474
(dp475
g6
(dp476
g8
S'env_lib_python2_7_site-packages_sqlalchemy_dialects_sqlite_pysqlite.html'
p477
sg10
S'env/lib/python2.7/site-packages/sqlalchemy/dialects/sqlite/pysqlite'
p478
sg12
g13
(g14
g15
NtRp479
(dp480
g18
I1
sg19
I0
sg20
I67
sg21
I0
sg22
I0
sg23
I16
sg24
I0
sbssg25
S'\x89y\xed\xb9\x18\xfa\x99W\x1d\xf2Z\x94\x92+4G'
p481
ssS'env_lib_python2_7_site-packages_flask__compat'
p482
(dp483
g6
(dp484
g8
S'env_lib_python2_7_site-packages_flask__compat.html'
p485
sg10
S'env/lib/python2.7/site-packages/flask/_compat'
p486
sg12
g13
(g14
g15
NtRp487
(dp488
g18
I1
sg19
I0
sg20
I38
sg21
I0
sg22
I0
sg23
I20
sg24
I0
sbssg25
S's\xcd\x8a\xd4\xc2\xb9\x888\x0c\x97\xf4\x02\xc7\xcf\xf3\xeb'
p489
ssS'env_lib_python2_7_site-packages_flask_wtf_recaptcha_validators'
p490
(dp491
g6
(dp492
g8
S'env_lib_python2_7_site-packages_flask_wtf_recaptcha_validators.html'
p493
sg10
S'env/lib/python2.7/site-packages/flask_wtf/recaptcha/validators'
p494
sg12
g13
(g14
g15
NtRp495
(dp496
g18
I1
sg19
I0
sg20
I45
sg21
I0
sg22
I0
sg23
I32
sg24
I0
sbssg25
S'%[\xa4b\xa8\xeb}o\xf5M0\xd8\xd3\xea\xda\xf7'
p497
ssS'env_lib_python2_7_site-packages_flask_sqlalchemy__compat'
p498
(dp499
g6
(dp500
g8
S'env_lib_python2_7_site-packages_flask_sqlalchemy__compat.html'
p501
sg10
S'env/lib/python2.7/site-packages/flask_sqlalchemy/_compat'
p502
sg12
g13
(g14
g15
NtRp503
(dp504
g18
I1
sg19
I0
sg20
I16
sg21
I0
sg22
I0
sg23
I6
sg24
I0
sbssg25
S'\xa5\xa8y\x10{\xe5\xfcm\x0f\xc6\xd4\x1a\xf0\x90Jh'
p505
ssS'env_lib_python2_7_site-packages_sqlalchemy_sql___init__'
p506
(dp507
g6
(dp508
g8
S'env_lib_python2_7_site-packages_sqlalchemy_sql___init__.html'
p509
sg10
S'env/lib/python2.7/site-packages/sqlalchemy/sql/__init__'
p510
sg12
g13
(g14
g15
NtRp511
(dp512
g18
I1
sg19
I0
sg20
I15
sg21
I0
sg22
I0
sg23
I0
sg24
I0
sbssg25
S'\xbfDb\\sZv\xe2\x06\xb7g\x95<\xd8\x8e\xaf'
p513
ssS'env_lib_python2_7_site-packages_sqlalchemy_event_legacy'
p514
(dp515
g6
(dp516
g8
S'env_lib_python2_7_site-packages_sqlalchemy_event_legacy.html'
p517
sg10
S'env/lib/python2.7/site-packages/sqlalchemy/event/legacy'
p518
sg12
g13
(g14
g15
NtRp519
(dp520
g18
I1
sg19
I0
sg20
I56
sg21
I0
sg22
I0
sg23
I18
sg24
I0
sbssg25
S'2\rzG\xde\x9a\xf4ZR\xb0\x1fLJ\xec\xea\x93'
p521
ssS'env_lib_python2_7_site-packages_flask_ext___init__'
p522
(dp523
g6
(dp524
g8
S'env_lib_python2_7_site-packages_flask_ext___init__.html'
p525
sg10
S'env/lib/python2.7/site-packages/flask/ext/__init__'
p526
sg12
g13
(g14
g15
NtRp527
(dp528
g18
I1
sg19
I0
sg20
I7
sg21
I0
sg22
I0
sg23
I0
sg24
I0
sbssg25
S'\xc7\xd4\x92\x9b\xb0\xb4h\xf1Rs\xd6\xf8vw\xdd\x07'
p529
ssS'env_lib_python2_7_site-packages_sqlalchemy_exc'
p530
(dp531
g6
(dp532
g8
S'env_lib_python2_7_site-packages_sqlalchemy_exc.html'
p533
sg10
S'env/lib/python2.7/site-packages/sqlalchemy/exc'
p534
sg12
g13
(g14
g15
NtRp535
(dp536
g18
I1
sg19
I0
sg20
I104
sg21
I0
sg22
I0
sg23
I29
sg24
I0
sbssg25
S'^ud\x9f\xa3*\xae\xed\xa5\x92D5>2_e'
p537
ssS'env_lib_python2_7_site-packages_sqlalchemy_sql_visitors'
p538
(dp539
g6
(dp540
g8
S'env_lib_python2_7_site-packages_sqlalchemy_sql_visitors.html'
p541
sg10
S'env/lib/python2.7/site-packages/sqlalchemy/sql/visitors'
p542
sg12
g13
(g14
g15
NtRp543
(dp544
g18
I1
sg19
I0
sg20
I132
sg21
I0
sg22
I0
sg23
I34
sg24
I0
sbssg25
S"'%\xab\xf2\xb2\x06x\n\xb4\xf7\x86=\tC\xa6J"
p545
ssS'env_lib_python2_7_site-packages_jinja2_compiler'
p546
(dp547
g6
(dp548
g8
S'env_lib_python2_7_site-packages_jinja2_compiler.html'
p549
sg10
S'env/lib/python2.7/site-packages/jinja2/compiler'
p550
sg12
g13
(g14
g15
NtRp551
(dp552
g18
I1
sg19
I0
sg20
I1030
sg21
I0
sg22
I0
sg23
I519
sg24
I0
sbssg25
S'jK\x8e\xf5F\xedA\xa8\x19\xef\xb9\xe1Z\x05\xdd\x8e'
p553
ssS'env_lib_python2_7_site-packages_jinja2_exceptions'
p554
(dp555
g6
(dp556
g8
S'env_lib_python2_7_site-packages_jinja2_exceptions.html'
p557
sg10
S'env/lib/python2.7/site-packages/jinja2/exceptions'
p558
sg12
g13
(g14
g15
NtRp559
(dp560
g18
I1
sg19
I0
sg20
I70
sg21
I0
sg22
I0
sg23
I47
sg24
I0
sbssg25
S'\xf3z\xf9\xb0i}\xb8\xf8a\x05\xda\n?\x1c\xfb\x1d'
p561
ssS'env_lib_python2_7_site-packages_sqlalchemy_util_langhelpers'
p562
(dp563
g6
(dp564
g8
S'env_lib_python2_7_site-packages_sqlalchemy_util_langhelpers.html'
p565
sg10
S'env/lib/python2.7/site-packages/sqlalchemy/util/langhelpers'
p566
sg12
g13
(g14
g15
NtRp567
(dp568
g18
I1
sg19
I0
sg20
I629
sg21
I0
sg22
I0
sg23
I267
sg24
I0
sbssg25
S'\xd9J\xb9\tK\xffheje(\x8aNJM\xf1'
p569
ssS'env_lib_python2_7_site-packages_sqlalchemy_orm_scoping'
p570
(dp571
g6
(dp572
g8
S'env_lib_python2_7_site-packages_sqlalchemy_orm_scoping.html'
p573
sg10
S'env/lib/python2.7/site-packages/sqlalchemy/orm/scoping'
p574
sg12
g13
(g14
g15
NtRp575
(dp576
g18
I1
sg19
I0
sg20
I63
sg21
I0
sg22
I0
sg23
I26
sg24
I0
sbssg25
S'\xe6\x98E\xa6\x16,wc\xbcg!0\xa2\xe5\xd2T'
p577
ssS'env_lib_python2_7_site-packages_sqlalchemy_orm_query'
p578
(dp579
g6
(dp580
g8
S'env_lib_python2_7_site-packages_sqlalchemy_orm_query.html'
p581
sg10
S'env/lib/python2.7/site-packages/sqlalchemy/orm/query'
p582
sg12
g13
(g14
g15
NtRp583
(dp584
g18
I1
sg19
I0
sg20
I1090
sg21
I0
sg22
I0
sg23
I650
sg24
I0
sbssg25
S' q\x0b\xb9\xe3\x8f\xdc9H\x82\x8f\xe6\x12\x05\x1ce'
p585
ssS'env_lib_python2_7_site-packages_werkzeug_formparser'
p586
(dp587
g6
(dp588
g8
S'env_lib_python2_7_site-packages_werkzeug_formparser.html'
p589
sg10
S'env/lib/python2.7/site-packages/werkzeug/formparser'
p590
sg12
g13
(g14
g15
NtRp591
(dp592
g18
I1
sg19
I0
sg20
I246
sg21
I4
sg22
I0
sg23
I173
sg24
I0
sbssg25
S'mR{\x9c\xd3\x12\xce_\x1a\x152rIz\xd7\xae'
p593
ssS'env_lib_python2_7_site-packages_itsdangerous'
p594
(dp595
g6
(dp596
g8
S'env_lib_python2_7_site-packages_itsdangerous.html'
p597
sg10
S'env/lib/python2.7/site-packages/itsdangerous'
p598
sg12
g13
(g14
g15
NtRp599
(dp600
g18
I1
sg19
I0
sg20
I413
sg21
I0
sg22
I0
sg23
I167
sg24
I0
sbssg25
S'\x91 \x8f\xfd\xb3\xa1\xfc5J1\x0c\xcb%\xdb+K'
p601
ssS'env_lib_python2_7_site-packages_sqlalchemy_dialects_sqlite___init__'
p602
(dp603
g6
(dp604
g8
S'env_lib_python2_7_site-packages_sqlalchemy_dialects_sqlite___init__.html'
p605
sg10
S'env/lib/python2.7/site-packages/sqlalchemy/dialects/sqlite/__init__'
p606
sg12
g13
(g14
g15
NtRp607
(dp608
g18
I1
sg19
I0
sg20
I4
sg21
I0
sg22
I0
sg23
I0
sg24
I0
sbssg25
S'!w\xed{=\x16-\xd6\x02\x1b\x93Z\xebO\xe4\x14'
p609
ssS'env_lib_python2_7_site-packages_sqlalchemy_orm_util'
p610
(dp611
g6
(dp612
g8
S'env_lib_python2_7_site-packages_sqlalchemy_orm_util.html'
p613
sg10
S'env/lib/python2.7/site-packages/sqlalchemy/orm/util'
p614
sg12
g13
(g14
g15
NtRp615
(dp616
g18
I1
sg19
I0
sg20
I281
sg21
I0
sg22
I0
sg23
I212
sg24
I0
sbssg25
S'(\xe4T\x88+\xae\xc9&F\xb6\xf6\xed(`\xea\xf0'
p617
ssS'env_lib_python2_7_site-packages_jinja2_tests'
p618
(dp619
g6
(dp620
g8
S'env_lib_python2_7_site-packages_jinja2_tests.html'
p621
sg10
S'env/lib/python2.7/site-packages/jinja2/tests'
p622
sg12
g13
(g14
g15
NtRp623
(dp624
g18
I1
sg19
I0
sg20
I47
sg21
I0
sg22
I0
sg23
I24
sg24
I0
sbssg25
S'\xb1[}x+R\x19\xd1\xe4\xc4\xf3\xcb"5\xe8\xfd'
p625
ssS'env_lib_python2_7_site-packages_jinja2___init__'
p626
(dp627
g6
(dp628
g8
S'env_lib_python2_7_site-packages_jinja2___init__.html'
p629
sg10
S'env/lib/python2.7/site-packages/jinja2/__init__'
p630
sg12
g13
(g14
g15
NtRp631
(dp632
g18
I1
sg19
I0
sg20
I11
sg21
I0
sg22
I0
sg23
I0
sg24
I0
sbssg25
S'\\\r\x9b(\x8d\x88\x89\xaaaX\xe8\xfc\x15~=!'
p633
ssS'env_lib_python2_7_site-packages_sqlalchemy_events'
p634
(dp635
g6
(dp636
g8
S'env_lib_python2_7_site-packages_sqlalchemy_events.html'
p637
sg10
S'env/lib/python2.7/site-packages/sqlalchemy/events'
p638
sg12
g13
(g14
g15
NtRp639
(dp640
g18
I1
sg19
I0
sg20
I95
sg21
I0
sg22
I0
sg23
I23
sg24
I0
sbssg25
S"\xf9\x14\x0b\r\\\xa4\x04'\xde)\xadk]\xd9(\x1e"
p641
ssS'env_lib_python2_7_site-packages_flask_wtf_recaptcha_fields'
p642
(dp643
g6
(dp644
g8
S'env_lib_python2_7_site-packages_flask_wtf_recaptcha_fields.html'
p645
sg10
S'env/lib/python2.7/site-packages/flask_wtf/recaptcha/fields'
p646
sg12
g13
(g14
g15
NtRp647
(dp648
g18
I1
sg19
I0
sg20
I10
sg21
I0
sg22
I0
sg23
I2
sg24
I0
sbssg25
S'b\xa9\xc8#Ez,\xaf\x89\x9c\x1b\x90f\xdd\x81>'
p649
ssS'env_lib_python2_7_site-packages_sqlalchemy_util_compat'
p650
(dp651
g6
(dp652
g8
S'env_lib_python2_7_site-packages_sqlalchemy_util_compat.html'
p653
sg10
S'env/lib/python2.7/site-packages/sqlalchemy/util/compat'
p654
sg12
g13
(g14
g15
NtRp655
(dp656
g18
I1
sg19
I0
sg20
I173
sg21
I0
sg22
I0
sg23
I95
sg24
I0
sbssg25
S'j\x02\xdc\xa5\xa3\x80\xcde\xbb/\xfa5\xc8\x8c\x15\xf3'
p657
ssS'env_lib_python2_7_site-packages_sqlalchemy_dialects_sqlite_pysqlcipher'
p658
(dp659
g6
(dp660
g8
S'env_lib_python2_7_site-packages_sqlalchemy_dialects_sqlite_pysqlcipher.html'
p661
sg10
S'env/lib/python2.7/site-packages/sqlalchemy/dialects/sqlite/pysqlcipher'
p662
sg12
g13
(g14
g15
NtRp663
(dp664
g18
I1
sg19
I0
sg20
I28
sg21
I0
sg22
I0
sg23
I15
sg24
I0
sbssg25
S'\xc0\xb5\xa7\x91\x97 f\xaf\x98\xd6\x08\xe4.\xce/\t'
p665
ssS'env_lib_python2_7_site-packages_flask_helpers'
p666
(dp667
g6
(dp668
g8
S'env_lib_python2_7_site-packages_flask_helpers.html'
p669
sg10
S'env/lib/python2.7/site-packages/flask/helpers'
p670
sg12
g13
(g14
g15
NtRp671
(dp672
g18
I1
sg19
I0
sg20
I277
sg21
I0
sg22
I0
sg23
I153
sg24
I0
sbssg25
S'\xd8\x19?r|v\xc7\xd8\x15\x9a-\xce_\xc5\xc7\x07'
p673
ssS'env_lib_python2_7_site-packages_flask_wrappers'
p674
(dp675
g6
(dp676
g8
S'env_lib_python2_7_site-packages_flask_wrappers.html'
p677
sg10
S'env/lib/python2.7/site-packages/flask/wrappers'
p678
sg12
g13
(g14
g15
NtRp679
(dp680
g18
I1
sg19
I0
sg20
I62
sg21
I0
sg22
I0
sg23
I32
sg24
I0
sbssg25
S'\x95\xe222\xaf\x83v\xb1\x13\x991\x96\xe2\xf4\x05\x17'
p681
ssS'env_lib_python2_7_site-packages_flask_ctx'
p682
(dp683
g6
(dp684
g8
S'env_lib_python2_7_site-packages_flask_ctx.html'
p685
sg10
S'env/lib/python2.7/site-packages/flask/ctx'
p686
sg12
g13
(g14
g15
NtRp687
(dp688
g18
I1
sg19
I0
sg20
I140
sg21
I0
sg22
I0
sg23
I39
sg24
I0
sbssg25
S'a\xd2+\xee\x9a\xbc\xb15\xac\xfc\xba\x85\xb0j;<'
p689
ssS'env_lib_python2_7_site-packages_flask_templating'
p690
(dp691
g6
(dp692
g8
S'env_lib_python2_7_site-packages_flask_templating.html'
p693
sg10
S'env/lib/python2.7/site-packages/flask/templating'
p694
sg12
g13
(g14
g15
NtRp695
(dp696
g18
I1
sg19
I0
sg20
I78
sg21
I0
sg22
I0
sg23
I34
sg24
I0
sbssg25
S'B\xd9X\x88\xedF\x9e\xea\xbbR\xdb\xb8\x8e\xd0\x89\x9b'
p697
ssS'env_lib_python2_7_site-packages_wtforms_widgets___init__'
p698
(dp699
g6
(dp700
g8
S'env_lib_python2_7_site-packages_wtforms_widgets___init__.html'
p701
sg10
S'env/lib/python2.7/site-packages/wtforms/widgets/__init__'
p702
sg12
g13
(g14
g15
NtRp703
(dp704
g18
I1
sg19
I0
sg20
I2
sg21
I0
sg22
I0
sg23
I0
sg24
I0
sbssg25
S'\xb7\xdd\xd5\x82\x17\xa4\xfeh?\xf5\xe8\xe5\xe6\x8blQ'
p705
ssS'env_lib_python2_7_site-packages_sqlalchemy_sql_default_comparator'
p706
(dp707
g6
(dp708
g8
S'env_lib_python2_7_site-packages_sqlalchemy_sql_default_comparator.html'
p709
sg10
S'env/lib/python2.7/site-packages/sqlalchemy/sql/default_comparator'
p710
sg12
g13
(g14
g15
NtRp711
(dp712
g18
I1
sg19
I0
sg20
I103
sg21
I0
sg22
I0
sg23
I63
sg24
I0
sbssg25
S'\x94Q1\x8d\xcaU\x89\x9b\xf3\x94\x87%/;\xf1G'
p713
ssS'env_lib_python2_7_site-packages_sqlalchemy_orm_identity'
p714
(dp715
g6
(dp716
g8
S'env_lib_python2_7_site-packages_sqlalchemy_orm_identity.html'
p717
sg10
S'env/lib/python2.7/site-packages/sqlalchemy/orm/identity'
p718
sg12
g13
(g14
g15
NtRp719
(dp720
g18
I1
sg19
I0
sg20
I164
sg21
I0
sg22
I0
sg23
I83
sg24
I0
sbssg25
S'\x92g\xd5\xba\x82;\x9aI\x8b\xfb\xe88\xd9\xc1w\xe9'
p721
ssS'env_lib_python2_7_site-packages_sqlalchemy_sql_compiler'
p722
(dp723
g6
(dp724
g8
S'env_lib_python2_7_site-packages_sqlalchemy_sql_compiler.html'
p725
sg10
S'env/lib/python2.7/site-packages/sqlalchemy/sql/compiler'
p726
sg12
g13
(g14
g15
NtRp727
(dp728
g18
I1
sg19
I0
sg20
I1373
sg21
I0
sg22
I0
sg23
I679
sg24
I0
sbssg25
S'hu\x9f\xc7\x02w[jJ/>V\xb2\xcb\xc3\xfc'
p729
ssS'env_lib_python2_7_site-packages_sqlalchemy_sql_schema'
p730
(dp731
g6
(dp732
g8
S'env_lib_python2_7_site-packages_sqlalchemy_sql_schema.html'
p733
sg10
S'env/lib/python2.7/site-packages/sqlalchemy/sql/schema'
p734
sg12
g13
(g14
g15
NtRp735
(dp736
g18
I1
sg19
I0
sg20
I1024
sg21
I0
sg22
I0
sg23
I514
sg24
I0
sbssg25
S'Q\xacy\x04(\x05D\xc9\x92\x90-#q\x91!\xa9'
p737
ssS'env_lib_python2_7_site-packages_sqlalchemy_ext_declarative___init__'
p738
(dp739
g6
(dp740
g8
S'env_lib_python2_7_site-packages_sqlalchemy_ext_declarative___init__.html'
p741
sg10
S'env/lib/python2.7/site-packages/sqlalchemy/ext/declarative/__init__'
p742
sg12
g13
(g14
g15
NtRp743
(dp744
g18
I1
sg19
I0
sg20
I2
sg21
I0
sg22
I0
sg23
I0
sg24
I0
sbssg25
S'L\x1dtT\x87a{\xfc\xb9\x89\n,C\x1f\x9b\xb6'
p745
ssS'env_lib_python2_7_site-packages_flask_wtf_i18n'
p746
(dp747
g6
(dp748
g8
S'env_lib_python2_7_site-packages_flask_wtf_i18n.html'
p749
sg10
S'env/lib/python2.7/site-packages/flask_wtf/i18n'
p750
sg12
g13
(g14
g15
NtRp751
(dp752
g18
I1
sg19
I0
sg20
I39
sg21
I0
sg22
I0
sg23
I36
sg24
I0
sbssg25
S"\xfd,\n/'\xd3eK\x1dg\xfb&w\xe9\x9b\xca"
p753
ssS'env_lib_python2_7_site-packages_wtforms_ext_csrf___init__'
p754
(dp755
g6
(dp756
g8
S'env_lib_python2_7_site-packages_wtforms_ext_csrf___init__.html'
p757
sg10
S'env/lib/python2.7/site-packages/wtforms/ext/csrf/__init__'
p758
sg12
g13
(g14
g15
NtRp759
(dp760
g18
I1
sg19
I0
sg20
I1
sg21
I0
sg22
I0
sg23
I0
sg24
I0
sbssg25
S'\x00dH\xb0G\xd3\x88\xe75\x1e?\xd3W\x82\x93o'
p761
ssS'env_lib_python2_7_site-packages_werkzeug_http'
p762
(dp763
g6
(dp764
g8
S'env_lib_python2_7_site-packages_werkzeug_http.html'
p765
sg10
S'env/lib/python2.7/site-packages/werkzeug/http'
p766
sg12
g13
(g14
g15
NtRp767
(dp768
g18
I1
sg19
I0
sg20
I373
sg21
I4
sg22
I0
sg23
I260
sg24
I0
sbssg25
S'J\xe1\x8f|\xcbb\xcfv\x89\x11I`\xfe\xbc\xdf\xdc'
p769
ssS'env_lib_python2_7_site-packages_flask_signals'
p770
(dp771
g6
(dp772
g8
S'env_lib_python2_7_site-packages_flask_signals.html'
p773
sg10
S'env/lib/python2.7/site-packages/flask/signals'
p774
sg12
g13
(g14
g15
NtRp775
(dp776
g18
I1
sg19
I0
sg20
I28
sg21
I0
sg22
I0
sg23
I2
sg24
I0
sbssg25
S'\x00\xe95\xfbqr\xe7\xe9k\xed\xaaT\xc5\xe1\xa5L'
p777
ssS'env_lib_python2_7_site-packages_sqlalchemy_ext___init__'
p778
(dp779
g6
(dp780
g8
S'env_lib_python2_7_site-packages_sqlalchemy_ext___init__.html'
p781
sg10
S'env/lib/python2.7/site-packages/sqlalchemy/ext/__init__'
p782
sg12
g13
(g14
g15
NtRp783
(dp784
g18
I1
sg19
I0
sg20
I0
sg21
I0
sg22
I0
sg23
I0
sg24
I0
sbssg25
S'/K\x95\xec{\xbd\xc7\x87\xa7\xcdm\x01M6\xcf\x84'
p785
ssS'env_lib_python2_7_site-packages_flask_wtf_recaptcha_widgets'
p786
(dp787
g6
(dp788
g8
S'env_lib_python2_7_site-packages_flask_wtf_recaptcha_widgets.html'
p789
sg10
S'env/lib/python2.7/site-packages/flask_wtf/recaptcha/widgets'
p790
sg12
g13
(g14
g15
NtRp791
(dp792
g18
I1
sg19
I0
sg20
I38
sg21
I0
sg22
I0
sg23
I22
sg24
I0
sbssg25
S'\xb0\x9d03\xb46&\xc5\x89\xd1d\x1bV\x18\x9cH'
p793
ssS'env_lib_python2_7_site-packages_sqlalchemy_engine_strategies'
p794
(dp795
g6
(dp796
g8
S'env_lib_python2_7_site-packages_sqlalchemy_engine_strategies.html'
p797
sg10
S'env/lib/python2.7/site-packages/sqlalchemy/engine/strategies'
p798
sg12
g13
(g14
g15
NtRp799
(dp800
g18
I1
sg19
I0
sg20
I130
sg21
I0
sg22
I0
sg23
I46
sg24
I0
sbssg25
S'-<F\x08\xe1\xeb\xd4\xbb>\x90\x12\xbc5E5\xdf'
p801
ssS'env_lib_python2_7_site-packages_sqlalchemy_sql_ddl'
p802
(dp803
g6
(dp804
g8
S'env_lib_python2_7_site-packages_sqlalchemy_sql_ddl.html'
p805
sg10
S'env/lib/python2.7/site-packages/sqlalchemy/sql/ddl'
p806
sg12
g13
(g14
g15
NtRp807
(dp808
g18
I1
sg19
I0
sg20
I245
sg21
I0
sg22
I0
sg23
I79
sg24
I0
sbssg25
S'yPn\x06\x84\x14\xd0*.\x96\xf9%#\xfaa('
p809
ssS'env_lib_python2_7_site-packages_werkzeug___init__'
p810
(dp811
g6
(dp812
g8
S'env_lib_python2_7_site-packages_werkzeug___init__.html'
p813
sg10
S'env/lib/python2.7/site-packages/werkzeug/__init__'
p814
sg12
g13
(g14
g15
NtRp815
(dp816
g18
I1
sg19
I0
sg20
I29
sg21
I0
sg22
I0
sg23
I4
sg24
I0
sbssg25
S'\x9d\xe9y\x01\x1a\x86#\xed\xae\xe45\x11(!7\t'
p817
ssS'env_lib_python2_7_site-packages_sqlalchemy_event_base'
p818
(dp819
g6
(dp820
g8
S'env_lib_python2_7_site-packages_sqlalchemy_event_base.html'
p821
sg10
S'env/lib/python2.7/site-packages/sqlalchemy/event/base'
p822
sg12
g13
(g14
g15
NtRp823
(dp824
g18
I1
sg19
I0
sg20
I88
sg21
I0
sg22
I0
sg23
I20
sg24
I0
sbssg25
S'\xc6\xa1\xfbR\x8a\xb3\x8c\xdd\xacC\x9dHh\x1c<\x15'
p825
ssS'env_lib_python2_7_site-packages_jinja2_lexer'
p826
(dp827
g6
(dp828
g8
S'env_lib_python2_7_site-packages_jinja2_lexer.html'
p829
sg10
S'env/lib/python2.7/site-packages/jinja2/lexer'
p830
sg12
g13
(g14
g15
NtRp831
(dp832
g18
I1
sg19
I0
sg20
I346
sg21
I0
sg22
I0
sg23
I80
sg24
I0
sbssg25
S'\x81\xe4\xbf\x163\x1c\xa6\xfb\xe60\xd9[\xdb\xa2\x13\n'
p833
ssS'env_lib_python2_7_site-packages_sqlalchemy_pool'
p834
(dp835
g6
(dp836
g8
S'env_lib_python2_7_site-packages_sqlalchemy_pool.html'
p837
sg10
S'env/lib/python2.7/site-packages/sqlalchemy/pool'
p838
sg12
g13
(g14
g15
NtRp839
(dp840
g18
I1
sg19
I0
sg20
I507
sg21
I0
sg22
I0
sg23
I292
sg24
I0
sbssg25
S'\xa6\rC\xad\x0e\xbc\x87\xe0\xc9\xb9\x07\xc2\xac9\xaev'
p841
ssS'env_lib_python2_7_site-packages_sqlalchemy_engine_default'
p842
(dp843
g6
(dp844
g8
S'env_lib_python2_7_site-packages_sqlalchemy_engine_default.html'
p845
sg10
S'env/lib/python2.7/site-packages/sqlalchemy/engine/default'
p846
sg12
g13
(g14
g15
NtRp847
(dp848
g18
I1
sg19
I0
sg20
I483
sg21
I0
sg22
I0
sg23
I189
sg24
I0
sbssg25
S'(l}\xd6\x19NO\xe8?\x95vVhX\xfa\xd2'
p849
ssS'env_lib_python2_7_site-packages_sqlalchemy_sql_base'
p850
(dp851
g6
(dp852
g8
S'env_lib_python2_7_site-packages_sqlalchemy_sql_base.html'
p853
sg10
S'env/lib/python2.7/site-packages/sqlalchemy/sql/base'
p854
sg12
g13
(g14
g15
NtRp855
(dp856
g18
I1
sg19
I0
sg20
I271
sg21
I0
sg22
I0
sg23
I138
sg24
I0
sbssg25
S'\xd4#\x15\x0c\x92\x18\x11\xbd^S\x83\xbf\xf91Ku'
p857
ssS'env_lib_python2_7_site-packages_sqlalchemy_sql_util'
p858
(dp859
g6
(dp860
g8
S'env_lib_python2_7_site-packages_sqlalchemy_sql_util.html'
p861
sg10
S'env/lib/python2.7/site-packages/sqlalchemy/sql/util'
p862
sg12
g13
(g14
g15
NtRp863
(dp864
g18
I1
sg19
I0
sg20
I287
sg21
I0
sg22
I0
sg23
I196
sg24
I0
sbssg25
S'@\xacT\x81\x99rP\nk\x12\x9cF\x1en\xe7\xde'
p865
ssS'env_lib_python2_7_site-packages_wtforms_validators'
p866
(dp867
g6
(dp868
S'html_filename'
p869
S'env_lib_python2_7_site-packages_wtforms_validators.html'
p870
sS'name'
p871
S'env/lib/python2.7/site-packages/wtforms/validators'
p872
sS'nums'
p873
g13
(g14
g15
NtRp874
(dp875
g18
I1
sg19
I0
sg20
I225
sg21
I0
sg22
I0
sg23
I125
sg24
I0
sbssg25
S'\xa2\x83\xc1$\x06\xfe\xef\x9f\xa0,\xb3\xbe\x16NPP'
p876
ssS'env_lib_python2_7_site-packages_sqlalchemy_types'
p877
(dp878
g6
(dp879
g8
S'env_lib_python2_7_site-packages_sqlalchemy_types.html'
p880
sg10
S'env/lib/python2.7/site-packages/sqlalchemy/types'
p881
sg12
g13
(g14
g15
NtRp882
(dp883
g18
I1
sg19
I0
sg20
I4
sg21
I0
sg22
I0
sg23
I0
sg24
I0
sbssg25
S'\x85\x92\xe3\x02\x0f\x9dI\xf0U\xb3\xb2\x83\xb0*\xd4\xc3'
p884
ssS'env_lib_python2_7_site-packages_wtforms_form'
p885
(dp886
g6
(dp887
g869
S'env_lib_python2_7_site-packages_wtforms_form.html'
p888
sg871
S'env/lib/python2.7/site-packages/wtforms/form'
p889
sg873
g13
(g14
g15
NtRp890
(dp891
g18
I1
sg19
I0
sg20
I122
sg21
I0
sg22
I0
sg23
I40
sg24
I0
sbssg25
S'\xa7\xf5\xe9\x9a\xef\x81$\xdcG\xecU\xf9\xc1\xbd\xa0\xfa'
p892
ssS'env_lib_python2_7_site-packages_flask_module'
p893
(dp894
g6
(dp895
g8
S'env_lib_python2_7_site-packages_flask_module.html'
p896
sg10
S'env/lib/python2.7/site-packages/flask/module'
p897
sg12
g13
(g14
g15
NtRp898
(dp899
g18
I1
sg19
I0
sg20
I13
sg21
I0
sg22
I0
sg23
I7
sg24
I0
sbssg25
S'\xf0\xdb\x0fZ4%l\x89\x9c]\xb9\xf7v\xe7@;'
p900
ssS'env_lib_python2_7_site-packages_jinja2_filters'
p901
(dp902
g6
(dp903
g8
S'env_lib_python2_7_site-packages_jinja2_filters.html'
p904
sg10
S'env/lib/python2.7/site-packages/jinja2/filters'
p905
sg12
g13
(g14
g15
NtRp906
(dp907
g18
I1
sg19
I0
sg20
I343
sg21
I0
sg22
I0
sg23
I265
sg24
I0
sbssg25
S'\xef#\xc6\xad\x92\x96v^M\x9d\xf0\xfeR\xcal\xc5'
p908
ssS'env_lib_python2_7_site-packages_sqlalchemy_sql_type_api'
p909
(dp910
g6
(dp911
g8
S'env_lib_python2_7_site-packages_sqlalchemy_sql_type_api.html'
p912
sg10
S'env/lib/python2.7/site-packages/sqlalchemy/sql/type_api'
p913
sg12
g13
(g14
g15
NtRp914
(dp915
g18
I1
sg19
I0
sg20
I262
sg21
I0
sg22
I0
sg23
I124
sg24
I0
sbssg25
S'\xdf\x85K2\xc1\xd5\xba\xa7\xcb\xa6\x90D\x8c\xf5\x1f\xc6'
p916
ssS'env_lib_python2_7_site-packages_werkzeug_datastructures'
p917
(dp918
g6
(dp919
g8
S'env_lib_python2_7_site-packages_werkzeug_datastructures.html'
p920
sg10
S'env/lib/python2.7/site-packages/werkzeug/datastructures'
p921
sg12
g13
(g14
g15
NtRp922
(dp923
g18
I1
sg19
I0
sg20
I1284
sg21
I0
sg22
I0
sg23
I767
sg24
I0
sbssg25
S'\x1f\x8d\xc3\x8b\x11Mp\xe4\xa2\xad\x02\x8d\x80\xe8"\xfc'
p924
ssS'env_lib_python2_7_site-packages_sqlalchemy_ext_declarative_base'
p925
(dp926
g6
(dp927
g8
S'env_lib_python2_7_site-packages_sqlalchemy_ext_declarative_base.html'
p928
sg10
S'env/lib/python2.7/site-packages/sqlalchemy/ext/declarative/base'
p929
sg12
g13
(g14
g15
NtRp930
(dp931
g18
I1
sg19
I0
sg20
I278
sg21
I0
sg22
I0
sg23
I127
sg24
I0
sbssg25
S'V\xb6!\xed\x01\x00\xf2\x1f\x8f\x93\xd8\xa5\x88\xdf\x1c\xc6'
p932
ssS'env_lib_python2_7_site-packages_sqlalchemy_inspection'
p933
(dp934
g6
(dp935
g8
S'env_lib_python2_7_site-packages_sqlalchemy_inspection.html'
p936
sg10
S'env/lib/python2.7/site-packages/sqlalchemy/inspection'
p937
sg12
g13
(g14
g15
NtRp938
(dp939
g18
I1
sg19
I0
sg20
I28
sg21
I0
sg22
I0
sg23
I2
sg24
I0
sbssg25
S'\x91\x8af\x16\xe9\x1e\xd6$x(`\xffSB*1'
p940
ssS'env_lib_python2_7_site-packages_sqlalchemy_orm_strategies'
p941
(dp942
g6
(dp943
g8
S'env_lib_python2_7_site-packages_sqlalchemy_orm_strategies.html'
p944
sg10
S'env/lib/python2.7/site-packages/sqlalchemy/orm/strategies'
p945
sg12
g13
(g14
g15
NtRp946
(dp947
g18
I1
sg19
I0
sg20
I629
sg21
I0
sg22
I0
sg23
I444
sg24
I0
sbssg25
S'<\xb9\xab\x1a\xa1\xa9\x10\x8b\x05g\x01Z\x1e\xce\xfe\xc0'
p948
ssS'env_lib_python2_7_site-packages_sqlalchemy_util_topological'
p949
(dp950
g6
(dp951
g8
S'env_lib_python2_7_site-packages_sqlalchemy_util_topological.html'
p952
sg10
S'env/lib/python2.7/site-packages/sqlalchemy/util/topological'
p953
sg12
g13
(g14
g15
NtRp954
(dp955
g18
I1
sg19
I0
sg20
I46
sg21
I0
sg22
I0
sg23
I8
sg24
I0
sbssg25
S'}\n+~\xa6\x98\xb6\xab\xb3]\xac\xc7\xcco\xc3\x8d'
p956
ssS'env_lib_python2_7_site-packages_sqlalchemy_ext_declarative_clsregistry'
p957
(dp958
g6
(dp959
g8
S'env_lib_python2_7_site-packages_sqlalchemy_ext_declarative_clsregistry.html'
p960
sg10
S'env/lib/python2.7/site-packages/sqlalchemy/ext/declarative/clsregistry'
p961
sg12
g13
(g14
g15
NtRp962
(dp963
g18
I1
sg19
I0
sg20
I179
sg21
I0
sg22
I0
sg23
I76
sg24
I0
sbssg25
S'v\xae\xb7\xb7\x0f\x08\xe4\xceo\no\x11\x03\xda\x99@'
p964
ssS'env_lib_python2_7_site-packages_jinja2_parser'
p965
(dp966
g6
(dp967
g8
S'env_lib_python2_7_site-packages_jinja2_parser.html'
p968
sg10
S'env/lib/python2.7/site-packages/jinja2/parser'
p969
sg12
g13
(g14
g15
NtRp970
(dp971
g18
I1
sg19
I0
sg20
I646
sg21
I0
sg22
I0
sg23
I331
sg24
I0
sbssg25
S'\xae]|\x99\xcd\x88\x93\x01 o\x03B\xf2\x8a\x17U'
p972
ssS'env_lib_python2_7_site-packages_sqlalchemy_orm_path_registry'
p973
(dp974
g6
(dp975
g8
S'env_lib_python2_7_site-packages_sqlalchemy_orm_path_registry.html'
p976
sg10
S'env/lib/python2.7/site-packages/sqlalchemy/orm/path_registry'
p977
sg12
g13
(g14
g15
NtRp978
(dp979
g18
I1
sg19
I0
sg20
I139
sg21
I0
sg22
I0
sg23
I50
sg24
I0
sbssg25
S'\xbe\xa3r\xb0\xe8\xc48\xdd\xa2Lt\x93o\xa9\x87\xce'
p980
ssS'env_lib_python2_7_site-packages_flask_globals'
p981
(dp982
g6
(dp983
g8
S'env_lib_python2_7_site-packages_flask_globals.html'
p984
sg10
S'env/lib/python2.7/site-packages/flask/globals'
p985
sg12
g13
(g14
g15
NtRp986
(dp987
g18
I1
sg19
I0
sg20
I24
sg21
I0
sg22
I0
sg23
I6
sg24
I0
sbssg25
S'\x91\x03\x82\xe3\xc1,$\x9d\xd3{\x81\xf4v]\xbe\x08'
p988
ssS'env_lib_python2_7_site-packages_sqlalchemy_orm_descriptor_props'
p989
(dp990
g6
(dp991
g8
S'env_lib_python2_7_site-packages_sqlalchemy_orm_descriptor_props.html'
p992
sg10
S'env/lib/python2.7/site-packages/sqlalchemy/orm/descriptor_props'
p993
sg12
g13
(g14
g15
NtRp994
(dp995
g18
I1
sg19
I0
sg20
I242
sg21
I0
sg22
I0
sg23
I191
sg24
I0
sbssg25
S'\xc1(]\xeb\xbb\xdb\xaa8u\x1eF\xcd\t\x95M\xb5'
p996
ssS'env_lib_python2_7_site-packages_werkzeug__internal'
p997
(dp998
g6
(dp999
g8
S'env_lib_python2_7_site-packages_werkzeug__internal.html'
p1000
sg10
S'env/lib/python2.7/site-packages/werkzeug/_internal'
p1001
sg12
g13
(g14
g15
NtRp1002
(dp1003
g18
I1
sg19
I0
sg20
I235
sg21
I0
sg22
I0
sg23
I137
sg24
I0
sbssg25
S'\xe2\xe2\xa6\x14\x19\xe0\xae2b\x17\x9flm\xa0\xe1Q'
p1004
ssS'env_lib_python2_7_site-packages_wtforms_ext_csrf_fields'
p1005
(dp1006
g6
(dp1007
g8
S'env_lib_python2_7_site-packages_wtforms_ext_csrf_fields.html'
p1008
sg10
S'env/lib/python2.7/site-packages/wtforms/ext/csrf/fields'
p1009
sg12
g13
(g14
g15
NtRp1010
(dp1011
g18
I1
sg19
I0
sg20
I7
sg21
I0
sg22
I0
sg23
I1
sg24
I0
sbssg25
S'a\xbeb\xa19%\x0enZZ\xc0\x81\t\x92?\xe7'
p1012
ssS'env_lib_python2_7_site-packages_werkzeug_local'
p1013
(dp1014
g6
(dp1015
g8
S'env_lib_python2_7_site-packages_werkzeug_local.html'
p1016
sg10
S'env/lib/python2.7/site-packages/werkzeug/local'
p1017
sg12
g13
(g14
g15
NtRp1018
(dp1019
g18
I1
sg19
I0
sg20
I210
sg21
I0
sg22
I0
sg23
I64
sg24
I0
sbssg25
S'\xc0U\x91\x84\x02\xba=\x0b(\xc1(\xd8\x8f\xde\x93M'
p1020
ssS'env_lib_python2_7_site-packages_wtforms_widgets_core'
p1021
(dp1022
g6
(dp1023
g8
S'env_lib_python2_7_site-packages_wtforms_widgets_core.html'
p1024
sg10
S'env/lib/python2.7/site-packages/wtforms/widgets/core'
p1025
sg12
g13
(g14
g15
NtRp1026
(dp1027
g18
I1
sg19
I0
sg20
I117
sg21
I0
sg22
I0
sg23
I41
sg24
I0
sbssg25
S'\x97-\x16\xa4\x8br{\xbcIw\x03\xcf\xb6\x8d\x94\x19'
p1028
ssS'env_lib_python2_7_site-packages_wtforms_ext___init__'
p1029
(dp1030
g6
(dp1031
g8
S'env_lib_python2_7_site-packages_wtforms_ext___init__.html'
p1032
sg10
S'env/lib/python2.7/site-packages/wtforms/ext/__init__'
p1033
sg12
g13
(g14
g15
NtRp1034
(dp1035
g18
I1
sg19
I0
sg20
I0
sg21
I0
sg22
I0
sg23
I0
sg24
I0
sbssg25
S'\xca\xf5\x9f\x7f\x88\xdfa\x831|T\x1d\xbc}\xa5v'
p1036
ssS'env_lib_python2_7_site-packages_jinja2_loaders'
p1037
(dp1038
g6
(dp1039
g8
S'env_lib_python2_7_site-packages_jinja2_loaders.html'
p1040
sg10
S'env/lib/python2.7/site-packages/jinja2/loaders'
p1041
sg12
g13
(g14
g15
NtRp1042
(dp1043
g18
I1
sg19
I0
sg20
I221
sg21
I0
sg22
I0
sg23
I136
sg24
I0
sbssg25
S'\x83&\xd8\xa0D\xd5\xfe\xbf\xb7@\xe28D\xf6\xc7]'
p1044
ssS'env_lib_python2_7_site-packages_sqlalchemy_sql_functions'
p1045
(dp1046
g6
(dp1047
g8
S'env_lib_python2_7_site-packages_sqlalchemy_sql_functions.html'
p1048
sg10
S'env/lib/python2.7/site-packages/sqlalchemy/sql/functions'
p1049
sg12
g13
(g14
g15
NtRp1050
(dp1051
g18
I1
sg19
I0
sg20
I170
sg21
I0
sg22
I0
sg23
I69
sg24
I0
sbssg25
S'j\\^SdE\x93i\xb5\xf4\x9ai\x95<q\xcc'
p1052
ssS'env_lib_python2_7_site-packages_flask_config'
p1053
(dp1054
g6
(dp1055
g8
S'env_lib_python2_7_site-packages_flask_config.html'
p1056
sg10
S'env/lib/python2.7/site-packages/flask/config'
p1057
sg12
g13
(g14
g15
NtRp1058
(dp1059
g18
I1
sg19
I0
sg20
I52
sg21
I0
sg22
I0
sg23
I21
sg24
I0
sbssg25
S'\xcc\x9bxG\xcdU\x94at\x14\x86\xa3\x82\xcd&\x1b'
p1060
ssS'env_lib_python2_7_site-packages_flask_wtf_recaptcha___init__'
p1061
(dp1062
g6
(dp1063
g8
S'env_lib_python2_7_site-packages_flask_wtf_recaptcha___init__.html'
p1064
sg10
S'env/lib/python2.7/site-packages/flask_wtf/recaptcha/__init__'
p1065
sg12
g13
(g14
g15
NtRp1066
(dp1067
g18
I1
sg19
I0
sg20
I3
sg21
I0
sg22
I0
sg23
I0
sg24
I0
sbssg25
S'4\x19\xb3FA\xfcS%\x10\xd6\x1b\xfa\x01\x97\xd2\xb2'
p1068
ssS'env_lib_python2_7_site-packages_sqlalchemy_interfaces'
p1069
(dp1070
g6
(dp1071
g8
S'env_lib_python2_7_site-packages_sqlalchemy_interfaces.html'
p1072
sg10
S'env/lib/python2.7/site-packages/sqlalchemy/interfaces'
p1073
sg12
g13
(g14
g15
NtRp1074
(dp1075
g18
I1
sg19
I0
sg20
I69
sg21
I0
sg22
I0
sg23
I47
sg24
I0
sbssg25
S'\x07-a\xa6\xd7\xaf,(W:Z\x8f\x90\xb3t\x03'
p1076
ssS'env_lib_python2_7_site-packages_sqlalchemy_engine_threadlocal'
p1077
(dp1078
g6
(dp1079
g8
S'env_lib_python2_7_site-packages_sqlalchemy_engine_threadlocal.html'
p1080
sg10
S'env/lib/python2.7/site-packages/sqlalchemy/engine/threadlocal'
p1081
sg12
g13
(g14
g15
NtRp1082
(dp1083
g18
I1
sg19
I0
sg20
I80
sg21
I0
sg22
I0
sg23
I55
sg24
I0
sbssg25
S'(\xce\x89\x9ekZ4\xde!|bJ\xcd\xa9\xc8\xbf'
p1084
ssS'env_lib_python2_7_site-packages_jinja2__compat'
p1085
(dp1086
g6
(dp1087
g8
S'env_lib_python2_7_site-packages_jinja2__compat.html'
p1088
sg10
S'env/lib/python2.7/site-packages/jinja2/_compat'
p1089
sg12
g13
(g14
g15
NtRp1090
(dp1091
g18
I1
sg19
I0
sg20
I98
sg21
I0
sg22
I0
sg23
I35
sg24
I0
sbssg25
S'@u\t\x99\xbd\xbah\xdc\xa2\x9a\x18b\x12T\x89\x93'
p1092
ssS'env_lib_python2_7_site-packages_sqlalchemy_orm_dependency'
p1093
(dp1094
g6
(dp1095
g8
S'env_lib_python2_7_site-packages_sqlalchemy_orm_dependency.html'
p1096
sg10
S'env/lib/python2.7/site-packages/sqlalchemy/orm/dependency'
p1097
sg12
g13
(g14
g15
NtRp1098
(dp1099
g18
I1
sg19
I0
sg20
I478
sg21
I0
sg22
I0
sg23
I371
sg24
I0
sbssg25
S'\xf8\xcd\x14\x9eV\x9f0O-c\x869\xdbX\x80\xc9'
p1100
ssS'env_lib_python2_7_site-packages_sqlalchemy_engine_url'
p1101
(dp1102
g6
(dp1103
g8
S'env_lib_python2_7_site-packages_sqlalchemy_engine_url.html'
p1104
sg10
S'env/lib/python2.7/site-packages/sqlalchemy/engine/url'
p1105
sg12
g13
(g14
g15
NtRp1106
(dp1107
g18
I1
sg19
I0
sg20
I110
sg21
I0
sg22
I0
sg23
I56
sg24
I0
sbssg25
S'\xb8|\xcfe\t\xff\x85 M\x1f\x97\xfd\xb0\xa1\xd94'
p1108
ssS'env_lib_python2_7_site-packages_sqlalchemy_ext_declarative_api'
p1109
(dp1110
g6
(dp1111
g8
S'env_lib_python2_7_site-packages_sqlalchemy_ext_declarative_api.html'
p1112
sg10
S'env/lib/python2.7/site-packages/sqlalchemy/ext/declarative/api'
p1113
sg12
g13
(g14
g15
NtRp1114
(dp1115
g18
I1
sg19
I0
sg20
I118
sg21
I0
sg22
I0
sg23
I70
sg24
I0
sbssg25
S'\x08<\x04V\x95W\x009e\xd2\xd9\x02\x16\xcal\xc7'
p1116
ssS'env_lib_python2_7_site-packages_flask_wtf_csrf'
p1117
(dp1118
g6
(dp1119
g8
S'env_lib_python2_7_site-packages_flask_wtf_csrf.html'
p1120
sg10
S'env/lib/python2.7/site-packages/flask_wtf/csrf'
p1121
sg12
g13
(g14
g15
NtRp1122
(dp1123
g18
I1
sg19
I0
sg20
I114
sg21
I0
sg22
I0
sg23
I95
sg24
I0
sbssg25
S'Z\xd5`\xd1\xc6Q\xf2Y\x97m\xc6\\\xd5\x0bq\x9a'
p1124
ssS'env_lib_python2_7_site-packages_wtforms_ext_csrf_form'
p1125
(dp1126
g6
(dp1127
g8
S'env_lib_python2_7_site-packages_wtforms_ext_csrf_form.html'
p1128
sg10
S'env/lib/python2.7/site-packages/wtforms/ext/csrf/form'
p1129
sg12
g13
(g14
g15
NtRp1130
(dp1131
g18
I1
sg19
I0
sg20
I18
sg21
I0
sg22
I0
sg23
I6
sg24
I0
sbssg25
S'\x97g\xdd\\_\xc8\xc1\xc2j\xca\xc74$\xcd2\xf4'
p1132
ssS'env_lib_python2_7_site-packages_sqlalchemy_orm_base'
p1133
(dp1134
g6
(dp1135
g8
S'env_lib_python2_7_site-packages_sqlalchemy_orm_base.html'
p1136
sg10
S'env/lib/python2.7/site-packages/sqlalchemy/orm/base'
p1137
sg12
g13
(g14
g15
NtRp1138
(dp1139
g18
I1
sg19
I0
sg20
I145
sg21
I0
sg22
I0
sg23
I39
sg24
I0
sbssg25
S'\xeb\xf9\xac?\xd7P\x16\xad\xdd\x08\xa6\x81j\xd0Bo'
p1140
ssS'env_lib_python2_7_site-packages_wtforms___init__'
p1141
(dp1142
g6
(dp1143
g8
S'env_lib_python2_7_site-packages_wtforms___init__.html'
p1144
sg10
S'env/lib/python2.7/site-packages/wtforms/__init__'
p1145
sg12
g13
(g14
g15
NtRp1146
(dp1147
g18
I1
sg19
I0
sg20
I5
sg21
I0
sg22
I0
sg23
I0
sg24
I0
sbssg25
S'\x96\xfa\xa5*\x1e<\xfb\xf9\x9a\xb8\xe2\xb8[\xcb\x13\x93'
p1148
ssS'env_lib_python2_7_site-packages_flask_wtf_form'
p1149
(dp1150
g6
(dp1151
g8
S'env_lib_python2_7_site-packages_flask_wtf_form.html'
p1152
sg10
S'env/lib/python2.7/site-packages/flask_wtf/form'
p1153
sg12
g13
(g14
g15
NtRp1154
(dp1155
g18
I1
sg19
I0
sg20
I77
sg21
I0
sg22
I0
sg23
I34
sg24
I0
sbssg25
S"\xde\xe9U'\xac\xc4\x03e\x95\xdc\xacG\xff\x1d\xae\x91"
p1156
ssS'env_lib_python2_7_site-packages_sqlalchemy_orm_persistence'
p1157
(dp1158
g6
(dp1159
g8
S'env_lib_python2_7_site-packages_sqlalchemy_orm_persistence.html'
p1160
sg10
S'env/lib/python2.7/site-packages/sqlalchemy/orm/persistence'
p1161
sg12
g13
(g14
g15
NtRp1162
(dp1163
g18
I1
sg19
I0
sg20
I464
sg21
I0
sg22
I0
sg23
I246
sg24
I0
sbssg25
S'\xf5\x93<\xf1\xf0\xc7BOFS\xd3\xe2\xdbp\x86:'
p1164
ssS'env_lib_python2_7_site-packages_sqlalchemy_dialects_sqlite_base'
p1165
(dp1166
g6
(dp1167
g8
S'env_lib_python2_7_site-packages_sqlalchemy_dialects_sqlite_base.html'
p1168
sg10
S'env/lib/python2.7/site-packages/sqlalchemy/dialects/sqlite/base'
p1169
sg12
g13
(g14
g15
NtRp1170
(dp1171
g18
I1
sg19
I0
sg20
I429
sg21
I0
sg22
I0
sg23
I251
sg24
I0
sbssg25
S'\x1b\x9e\x9e\x1fvE\xf5\xd6[\x8d =\x08\xe2\x15\x95'
p1172
ssS'env_lib_python2_7_site-packages_sqlalchemy_orm_deprecated_interfaces'
p1173
(dp1174
g6
(dp1175
g8
S'env_lib_python2_7_site-packages_sqlalchemy_orm_deprecated_interfaces.html'
p1176
sg10
S'env/lib/python2.7/site-packages/sqlalchemy/orm/deprecated_interfaces'
p1177
sg12
g13
(g14
g15
NtRp1178
(dp1179
g18
I1
sg19
I0
sg20
I91
sg21
I0
sg22
I0
sg23
I50
sg24
I0
sbssg25
S'?\x88"\xa2N\x08G\xc5\x00\x1f\x96\xc1\x90\xc4\x06R'
p1180
ssS'env_lib_python2_7_site-packages_sqlalchemy_sql_selectable'
p1181
(dp1182
g6
(dp1183
g8
S'env_lib_python2_7_site-packages_sqlalchemy_sql_selectable.html'
p1184
sg10
S'env/lib/python2.7/site-packages/sqlalchemy/sql/selectable'
p1185
sg12
g13
(g14
g15
NtRp1186
(dp1187
g18
I1
sg19
I0
sg20
I886
sg21
I0
sg22
I0
sg23
I497
sg24
I0
sbssg25
S'\x98\x00`N\xd7\x11\xf9\xc36\x0c\xf8y[\xc3\xbfe'
p1188
ssS'env_lib_python2_7_site-packages_flask_testing'
p1189
(dp1190
g6
(dp1191
g8
S'env_lib_python2_7_site-packages_flask_testing.html'
p1192
sg10
S'env/lib/python2.7/site-packages/flask/testing'
p1193
sg12
g13
(g14
g15
NtRp1194
(dp1195
g18
I1
sg19
I0
sg20
I58
sg21
I0
sg22
I0
sg23
I31
sg24
I0
sbssg25
S'\xd9\xf3_\xa9\x18t\xef\xa2\xc5q@\xd3\xfe@\xd4c'
p1196
ssS'env_lib_python2_7_site-packages_sqlalchemy_sql_expression'
p1197
(dp1198
g6
(dp1199
g8
S'env_lib_python2_7_site-packages_sqlalchemy_sql_expression.html'
p1200
sg10
S'env/lib/python2.7/site-packages/sqlalchemy/sql/expression'
p1201
sg12
g13
(g14
g15
NtRp1202
(dp1203
g18
I1
sg19
I0
sg20
I67
sg21
I0
sg22
I0
sg23
I0
sg24
I0
sbssg25
S'\x14\xe7\xc4\xe8@\xe5\t}\xba\xe6,E\xe3\x06\xe0\xad'
p1204
ssS'env_lib_python2_7_site-packages_wtforms_fields_core'
p1205
(dp1206
g6
(dp1207
g869
S'env_lib_python2_7_site-packages_wtforms_fields_core.html'
p1208
sg871
S'env/lib/python2.7/site-packages/wtforms/fields/core'
p1209
sg873
g13
(g14
g15
NtRp1210
(dp1211
g18
I1
sg19
I0
sg20
I484
sg21
I0
sg22
I0
sg23
I242
sg24
I0
sbssg25
S'\x06\xfdsX\x8c\xe8\x10@I\x9e\x93\xc9\x1e\x84r\x94'
p1212
ssS'views'
p1213
(dp1214
g6
(dp1215
g869
S'views.html'
p1216
sg871
S'views'
p1217
sg873
g13
(g14
g15
NtRp1218
(dp1219
g18
I1
sg19
I0
sg20
I94
sg21
I0
sg22
I0
sg23
I4
sg24
I0
sbssg25
S"[e\x12\x03'6 \xa88\x7f\xb2a(\xea\x8a\xd1"
p1220
ssS'env_lib_python2_7_site-packages_jinja2_visitor'
p1221
(dp1222
g6
(dp1223
g8
S'env_lib_python2_7_site-packages_jinja2_visitor.html'
p1224
sg10
S'env/lib/python2.7/site-packages/jinja2/visitor'
p1225
sg12
g13
(g14
g15
NtRp1226
(dp1227
g18
I1
sg19
I0
sg20
I40
sg21
I0
sg22
I0
sg23
I8
sg24
I0
sbssg25
S'+&9m\xe7\x0f\xabq\x87\xaf;EL\x84#i'
p1228
ssS'env_lib_python2_7_site-packages_sqlalchemy_orm_interfaces'
p1229
(dp1230
g6
(dp1231
g8
S'env_lib_python2_7_site-packages_sqlalchemy_orm_interfaces.html'
p1232
sg10
S'env/lib/python2.7/site-packages/sqlalchemy/orm/interfaces'
p1233
sg12
g13
(g14
g15
NtRp1234
(dp1235
g18
I1
sg19
I0
sg20
I149
sg21
I0
sg22
I0
sg23
I33
sg24
I0
sbssg25
S'C\xf9\x85\xb0=\x85E\xec\x9d\x8f\xfei\xdb!\xbe|'
p1236
ssS'env_lib_python2_7_site-packages_sqlalchemy_util_deprecations'
p1237
(dp1238
g6
(dp1239
g8
S'env_lib_python2_7_site-packages_sqlalchemy_util_deprecations.html'
p1240
sg10
S'env/lib/python2.7/site-packages/sqlalchemy/util/deprecations'
p1241
sg12
g13
(g14
g15
NtRp1242
(dp1243
g18
I1
sg19
I0
sg20
I66
sg21
I0
sg22
I0
sg23
I7
sg24
I0
sbssg25
S'\x86\x01\xf5\x08\xaa\x00\xc9\x8cL&\x99\x84W\x1cx\x89'
p1244
ssS'test'
p1245
(dp1246
g6
(dp1247
g869
S'test.html'
p1248
sg871
S'test'
p1249
sg873
g13
(g14
g15
NtRp1250
(dp1251
g18
I1
sg19
I0
sg20
I117
sg21
I0
sg22
I0
sg23
I0
sg24
I0
sbssg25
S'\xc5\xe4|\xd2\xfbB\xbekWa\x17\x16u\x98\xf2A'
p1252
ssS'config'
p1253
(dp1254
g6
(dp1255
g8
S'config.html'
p1256
sg10
g1253
sg12
g13
(g14
g15
NtRp1257
(dp1258
g18
I1
sg19
I0
sg20
I7
sg21
I0
sg22
I0
sg23
I0
sg24
I0
sbssg25
S'\x82ZV!\x8c\x806\x0b&\xff\x1e\xa5E\xd5m!'
p1259
ssS'env_lib_python2_7_site-packages_sqlalchemy_orm_relationships'
p1260
(dp1261
g6
(dp1262
g8
S'env_lib_python2_7_site-packages_sqlalchemy_orm_relationships.html'
p1263
sg10
S'env/lib/python2.7/site-packages/sqlalchemy/orm/relationships'
p1264
sg12
g13
(g14
g15
NtRp1265
(dp1266
g18
I1
sg19
I0
sg20
I785
sg21
I0
sg22
I0
sg23
I374
sg24
I0
sbssg25
S'T\x84z\xff\xdd\xce\xb9\xc6\xca\xf9 z\x98\x87\x97\xc6'
p1267
ssS'env_lib_python2_7_site-packages_sqlalchemy_orm_mapper'
p1268
(dp1269
g6
(dp1270
g8
S'env_lib_python2_7_site-packages_sqlalchemy_orm_mapper.html'
p1271
sg10
S'env/lib/python2.7/site-packages/sqlalchemy/orm/mapper'
p1272
sg12
g13
(g14
g15
NtRp1273
(dp1274
g18
I1
sg19
I0
sg20
I902
sg21
I0
sg22
I0
sg23
I430
sg24
I0
sbssg25
S'\x10_\x8e\x0c4q\xc8\xc0P\x98"3\x90\x90\x80\x17'
p1275
ssS'models'
p1276
(dp1277
g6
(dp1278
g8
S'models.html'
p1279
sg10
g1276
sg12
g13
(g14
g15
NtRp1280
(dp1281
g18
I1
sg19
I0
sg20
I33
sg21
I0
sg22
I0
sg23
I2
sg24
I0
sbssg25
S'!E\xdc\x1f\xf6\xf8\xd9|< }\x07\x85C\x17i'
p1282
ssS'env_lib_python2_7_site-packages_sqlalchemy_event_attr'
p1283
(dp1284
g6
(dp1285
g8
S'env_lib_python2_7_site-packages_sqlalchemy_event_attr.html'
p1286
sg10
S'env/lib/python2.7/site-packages/sqlalchemy/event/attr'
p1287
sg12
g13
(g14
g15
NtRp1288
(dp1289
g18
I1
sg19
I0
sg20
I213
sg21
I0
sg22
I0
sg23
I67
sg24
I0
sbssg25
S'\x844\xb8\x04z\xe4u\x81\xb8l+g.\x13\x8c{'
p1290
ssS'env_lib_python2_7_site-packages_flask_wtf___init__'
p1291
(dp1292
g6
(dp1293
g8
S'env_lib_python2_7_site-packages_flask_wtf___init__.html'
p1294
sg10
S'env/lib/python2.7/site-packages/flask_wtf/__init__'
p1295
sg12
g13
(g14
g15
NtRp1296
(dp1297
g18
I1
sg19
I0
sg20
I6
sg21
I0
sg22
I0
sg23
I0
sg24
I0
sbssg25
S'\xd5\xec{9\x18O\xf7gi\x7f\xdc\x8cx#\x18\x82'
p1298
ssS'env_lib_python2_7_site-packages_werkzeug__compat'
p1299
(dp1300
g6
(dp1301
g8
S'env_lib_python2_7_site-packages_werkzeug__compat.html'
p1302
sg10
S'env/lib/python2.7/site-packages/werkzeug/_compat'
p1303
sg12
g13
(g14
g15
NtRp1304
(dp1305
g18
I1
sg19
I0
sg20
I146
sg21
I0
sg22
I0
sg23
I68
sg24
I0
sbssg25
S'\x89o\xedgb\xd6*S\x1d\xd2\xa4\xac\x0e\xf2R|'
p1306
ssS'env_lib_python2_7_site-packages_sqlalchemy_log'
p1307
(dp1308
g6
(dp1309
g8
S'env_lib_python2_7_site-packages_sqlalchemy_log.html'
p1310
sg10
S'env/lib/python2.7/site-packages/sqlalchemy/log'
p1311
sg12
g13
(g14
g15
NtRp1312
(dp1313
g18
I1
sg19
I0
sg20
I79
sg21
I0
sg22
I0
sg23
I33
sg24
I0
sbssg25
S'a\xd0\xeb\xd8\xfb\xc3\xc3p\xe6#n\x1b\xa4\x87\x9f\xaa'
p1314
ssS'env_lib_python2_7_site-packages_flask_sqlalchemy___init__'
p1315
(dp1316
g6
(dp1317
g8
S'env_lib_python2_7_site-packages_flask_sqlalchemy___init__.html'
p1318
sg10
S'env/lib/python2.7/site-packages/flask_sqlalchemy/__init__'
p1319
sg12
g13
(g14
g15
NtRp1320
(dp1321
g18
I1
sg19
I0
sg20
I431
sg21
I0
sg22
I0
sg23
I109
sg24
I0
sbssg25
S'\xe50\x98\xcf\xb3\x06\xafh\x8a\x9e\r\xf5\xdag\x0e\xe4'
p1322
ssS'env_lib_python2_7_site-packages_sqlalchemy_orm_collections'
p1323
(dp1324
g6
(dp1325
g8
S'env_lib_python2_7_site-packages_sqlalchemy_orm_collections.html'
p1326
sg10
S'env/lib/python2.7/site-packages/sqlalchemy/orm/collections'
p1327
sg12
g13
(g14
g15
NtRp1328
(dp1329
g18
I1
sg19
I0
sg20
I691
sg21
I0
sg22
I0
sg23
I391
sg24
I0
sbssg25
S'B\xa7{\xf3\xdb\x14p\x8b\xca\xbf\xf9\xc6&\xe5\xabB'
p1330
ssS'env_lib_python2_7_site-packages_sqlalchemy_sql_operators'
p1331
(dp1332
g6
(dp1333
g8
S'env_lib_python2_7_site-packages_sqlalchemy_sql_operators.html'
p1334
sg10
S'env/lib/python2.7/site-packages/sqlalchemy/sql/operators'
p1335
sg12
g13
(g14
g15
NtRp1336
(dp1337
g18
I1
sg19
I0
sg20
I199
sg21
I0
sg22
I0
sg23
I88
sg24
I0
sbssg25
S'-X\xfe8\x92h\x03i\x893\xfe\xcf\xb2\xea\x85\xea'
p1338
ssS'env_lib_python2_7_site-packages_jinja2_nodes'
p1339
(dp1340
g6
(dp1341
g8
S'env_lib_python2_7_site-packages_jinja2_nodes.html'
p1342
sg10
S'env/lib/python2.7/site-packages/jinja2/nodes'
p1343
sg12
g13
(g14
g15
NtRp1344
(dp1345
g18
I1
sg19
I0
sg20
I423
sg21
I0
sg22
I0
sg23
I153
sg24
I0
sbssg25
S'\xb6\xb6\xf0\x92\x15\xd0\xb2 \x0b"Y\x16\x8b\xef!\x99'
p1346
ssS'env_lib_python2_7_site-packages_jinja2_ext'
p1347
(dp1348
g6
(dp1349
g8
S'env_lib_python2_7_site-packages_jinja2_ext.html'
p1350
sg10
S'env/lib/python2.7/site-packages/jinja2/ext'
p1351
sg12
g13
(g14
g15
NtRp1352
(dp1353
g18
I1
sg19
I0
sg20
I305
sg21
I0
sg22
I0
sg23
I241
sg24
I0
sbssg25
S'\xf2\xe7\xbc,\x81\xdb\xc6\xee\x8f\xd3a\x1eGu\x19\x12'
p1354
ssS'env_lib_python2_7_site-packages_sqlalchemy_orm_exc'
p1355
(dp1356
g6
(dp1357
g8
S'env_lib_python2_7_site-packages_sqlalchemy_orm_exc.html'
p1358
sg10
S'env/lib/python2.7/site-packages/sqlalchemy/orm/exc'
p1359
sg12
g13
(g14
g15
NtRp1360
(dp1361
g18
I1
sg19
I0
sg20
I60
sg21
I0
sg22
I0
sg23
I35
sg24
I0
sbssg25
S'\xe4\xa0\x80\x1dx\xc3k>\x83\xa1h\x19<\x12\xbd\x83'
p1362
ssS'env_lib_python2_7_site-packages_sqlalchemy___init__'
p1363
(dp1364
g6
(dp1365
g8
S'env_lib_python2_7_site-packages_sqlalchemy___init__.html'
p1366
sg10
S'env/lib/python2.7/site-packages/sqlalchemy/__init__'
p1367
sg12
g13
(g14
g15
NtRp1368
(dp1369
g18
I1
sg19
I0
sg20
I13
sg21
I0
sg22
I0
sg23
I0
sg24
I0
sbssg25
S'{\xb8\xe6\x7f\xdcC\x9c\xbb\xf1\x14O$\xeeG\x86\xea'
p1370
ssS'env_lib_python2_7_site-packages_jinja2_defaults'
p1371
(dp1372
g6
(dp1373
g8
S'env_lib_python2_7_site-packages_jinja2_defaults.html'
p1374
sg10
S'env/lib/python2.7/site-packages/jinja2/defaults'
p1375
sg12
g13
(g14
g15
NtRp1376
(dp1377
g18
I1
sg19
I0
sg20
I19
sg21
I0
sg22
I0
sg23
I0
sg24
I0
sbssg25
S'\xe2s1\x07\x11\xcc\xb8t@\xa5n<\x98\x97"j'
p1378
ssS'env_lib_python2_7_site-packages_sqlalchemy_sql_dml'
p1379
(dp1380
g6
(dp1381
g8
S'env_lib_python2_7_site-packages_sqlalchemy_sql_dml.html'
p1382
sg10
S'env/lib/python2.7/site-packages/sqlalchemy/sql/dml'
p1383
sg12
g13
(g14
g15
NtRp1384
(dp1385
g18
I1
sg19
I0
sg20
I153
sg21
I0
sg22
I0
sg23
I65
sg24
I0
sbssg25
S'\xaa\x9a\x03\x93\xa5\x80f\xa5c\xb7\x8a\xf0\xf5?\x90\xd6'
p1386
ssS'env_lib_python2_7_site-packages_werkzeug_wsgi'
p1387
(dp1388
g6
(dp1389
g8
S'env_lib_python2_7_site-packages_werkzeug_wsgi.html'
p1390
sg10
S'env/lib/python2.7/site-packages/werkzeug/wsgi'
p1391
sg12
g13
(g14
g15
NtRp1392
(dp1393
g18
I1
sg19
I0
sg20
I448
sg21
I0
sg22
I0
sg23
I293
sg24
I0
sbssg25
S"*\x03\x8cb\xe0\x95\xfa\xe3?=\xd8\xd1L=O'"
p1394
sssS'version'
p1395
S'3.7.1'
p1396
sS'settings'
p1397
S'\x98\xa8x\xfe"r\xb5K\x98\xb1N\\\x99\x9e\xf3\xe5'
p1398
sS'format'
p1399
I1
s.